
PRJ.elf:     file format elf32-littlearm

Sections:
Idx Name          Size      VMA       LMA       File off  Algn
  0 .isr_vector   0000010c  08000000  08000000  00010000  2**0
                  CONTENTS, ALLOC, LOAD, READONLY, DATA
  1 .text         00001ea0  0800010c  0800010c  0001010c  2**2
                  CONTENTS, ALLOC, LOAD, READONLY, CODE
  2 .rodata       00000020  08001fac  08001fac  00011fac  2**2
                  CONTENTS, ALLOC, LOAD, READONLY, DATA
  3 .ARM.extab    00000000  08001fcc  08001fcc  0002002c  2**0
                  CONTENTS
  4 .ARM          00000000  08001fcc  08001fcc  0002002c  2**0
                  CONTENTS
  5 .preinit_array 00000000  08001fcc  08001fcc  0002002c  2**0
                  CONTENTS, ALLOC, LOAD, DATA
  6 .init_array   00000004  08001fcc  08001fcc  00011fcc  2**2
                  CONTENTS, ALLOC, LOAD, DATA
  7 .fini_array   00000004  08001fd0  08001fd0  00011fd0  2**2
                  CONTENTS, ALLOC, LOAD, DATA
  8 .data         0000002c  20000000  08001fd4  00020000  2**2
                  CONTENTS, ALLOC, LOAD, DATA
  9 .bss          0000007c  2000002c  08002000  0002002c  2**2
                  ALLOC
 10 ._user_heap_stack 00000600  200000a8  08002000  000200a8  2**0
                  ALLOC
 11 .ARM.attributes 00000029  00000000  00000000  0002002c  2**0
                  CONTENTS, READONLY
 12 .debug_info   00008361  00000000  00000000  00020055  2**0
                  CONTENTS, READONLY, DEBUGGING, OCTETS
 13 .debug_abbrev 0000154f  00000000  00000000  000283b6  2**0
                  CONTENTS, READONLY, DEBUGGING, OCTETS
 14 .debug_aranges 00000958  00000000  00000000  00029908  2**3
                  CONTENTS, READONLY, DEBUGGING, OCTETS
 15 .debug_ranges 000008b0  00000000  00000000  0002a260  2**3
                  CONTENTS, READONLY, DEBUGGING, OCTETS
 16 .debug_macro  0001625a  00000000  00000000  0002ab10  2**0
                  CONTENTS, READONLY, DEBUGGING, OCTETS
 17 .debug_line   00009509  00000000  00000000  00040d6a  2**0
                  CONTENTS, READONLY, DEBUGGING, OCTETS
 18 .debug_str    00081de8  00000000  00000000  0004a273  2**0
                  CONTENTS, READONLY, DEBUGGING, OCTETS
 19 .comment      00000053  00000000  00000000  000cc05b  2**0
                  CONTENTS, READONLY
 20 .debug_frame  0000266c  00000000  00000000  000cc0b0  2**2
                  CONTENTS, READONLY, DEBUGGING, OCTETS

Disassembly of section .text:

0800010c <__do_global_dtors_aux>:
 800010c:	b510      	push	{r4, lr}
 800010e:	4c05      	ldr	r4, [pc, #20]	; (8000124 <__do_global_dtors_aux+0x18>)
 8000110:	7823      	ldrb	r3, [r4, #0]
 8000112:	b933      	cbnz	r3, 8000122 <__do_global_dtors_aux+0x16>
 8000114:	4b04      	ldr	r3, [pc, #16]	; (8000128 <__do_global_dtors_aux+0x1c>)
 8000116:	b113      	cbz	r3, 800011e <__do_global_dtors_aux+0x12>
 8000118:	4804      	ldr	r0, [pc, #16]	; (800012c <__do_global_dtors_aux+0x20>)
 800011a:	f3af 8000 	nop.w
 800011e:	2301      	movs	r3, #1
 8000120:	7023      	strb	r3, [r4, #0]
 8000122:	bd10      	pop	{r4, pc}
 8000124:	2000002c 	.word	0x2000002c
 8000128:	00000000 	.word	0x00000000
 800012c:	08001f94 	.word	0x08001f94

08000130 <frame_dummy>:
 8000130:	b508      	push	{r3, lr}
 8000132:	4b03      	ldr	r3, [pc, #12]	; (8000140 <frame_dummy+0x10>)
 8000134:	b11b      	cbz	r3, 800013e <frame_dummy+0xe>
 8000136:	4903      	ldr	r1, [pc, #12]	; (8000144 <frame_dummy+0x14>)
 8000138:	4803      	ldr	r0, [pc, #12]	; (8000148 <frame_dummy+0x18>)
 800013a:	f3af 8000 	nop.w
 800013e:	bd08      	pop	{r3, pc}
 8000140:	00000000 	.word	0x00000000
 8000144:	20000030 	.word	0x20000030
 8000148:	08001f94 	.word	0x08001f94

0800014c <setTimer0>:

/* Private user code ---------------------------------------------------------*/
/* USER CODE BEGIN 0 */
int timer0_counter = 0;
int timer0_flag = 0;
void setTimer0(int duration) {
 800014c:	b480      	push	{r7}
 800014e:	b083      	sub	sp, #12
 8000150:	af00      	add	r7, sp, #0
 8000152:	6078      	str	r0, [r7, #4]
	timer0_counter = duration / 10;
 8000154:	687b      	ldr	r3, [r7, #4]
 8000156:	4a08      	ldr	r2, [pc, #32]	; (8000178 <setTimer0+0x2c>)
 8000158:	fb82 1203 	smull	r1, r2, r2, r3
 800015c:	1092      	asrs	r2, r2, #2
 800015e:	17db      	asrs	r3, r3, #31
 8000160:	1ad3      	subs	r3, r2, r3
 8000162:	4a06      	ldr	r2, [pc, #24]	; (800017c <setTimer0+0x30>)
 8000164:	6013      	str	r3, [r2, #0]
	timer0_flag = 0;
 8000166:	4b06      	ldr	r3, [pc, #24]	; (8000180 <setTimer0+0x34>)
 8000168:	2200      	movs	r2, #0
 800016a:	601a      	str	r2, [r3, #0]
}
 800016c:	bf00      	nop
 800016e:	370c      	adds	r7, #12
 8000170:	46bd      	mov	sp, r7
 8000172:	bc80      	pop	{r7}
 8000174:	4770      	bx	lr
 8000176:	bf00      	nop
 8000178:	66666667 	.word	0x66666667
 800017c:	20000048 	.word	0x20000048
 8000180:	2000004c 	.word	0x2000004c

08000184 <timerRun>:
void timerRun() {
 8000184:	b480      	push	{r7}
 8000186:	af00      	add	r7, sp, #0
	if (timer0_counter > 0) {
 8000188:	4b09      	ldr	r3, [pc, #36]	; (80001b0 <timerRun+0x2c>)
 800018a:	681b      	ldr	r3, [r3, #0]
 800018c:	2b00      	cmp	r3, #0
 800018e:	dd0b      	ble.n	80001a8 <timerRun+0x24>
		timer0_counter--;
 8000190:	4b07      	ldr	r3, [pc, #28]	; (80001b0 <timerRun+0x2c>)
 8000192:	681b      	ldr	r3, [r3, #0]
 8000194:	3b01      	subs	r3, #1
 8000196:	4a06      	ldr	r2, [pc, #24]	; (80001b0 <timerRun+0x2c>)
 8000198:	6013      	str	r3, [r2, #0]
		if (timer0_counter <= 0) {
 800019a:	4b05      	ldr	r3, [pc, #20]	; (80001b0 <timerRun+0x2c>)
 800019c:	681b      	ldr	r3, [r3, #0]
 800019e:	2b00      	cmp	r3, #0
 80001a0:	dc02      	bgt.n	80001a8 <timerRun+0x24>
			timer0_flag = 1;
 80001a2:	4b04      	ldr	r3, [pc, #16]	; (80001b4 <timerRun+0x30>)
 80001a4:	2201      	movs	r2, #1
 80001a6:	601a      	str	r2, [r3, #0]
		}
	}
}
 80001a8:	bf00      	nop
 80001aa:	46bd      	mov	sp, r7
 80001ac:	bc80      	pop	{r7}
 80001ae:	4770      	bx	lr
 80001b0:	20000048 	.word	0x20000048
 80001b4:	2000004c 	.word	0x2000004c

080001b8 <BUTTON_PRESSED>:
int KeyGen2 = NORMAL_STATE;
int KeyGen3 = NORMAL_STATE;

int BUTTON_flag = 0;

int BUTTON_PRESSED() {
 80001b8:	b480      	push	{r7}
 80001ba:	af00      	add	r7, sp, #0
	if (BUTTON_flag == 1) {
 80001bc:	4b05      	ldr	r3, [pc, #20]	; (80001d4 <BUTTON_PRESSED+0x1c>)
 80001be:	681b      	ldr	r3, [r3, #0]
 80001c0:	2b01      	cmp	r3, #1
 80001c2:	d101      	bne.n	80001c8 <BUTTON_PRESSED+0x10>
		//BUTTON_flag = 0;
		return 1;
 80001c4:	2301      	movs	r3, #1
 80001c6:	e000      	b.n	80001ca <BUTTON_PRESSED+0x12>
	}
	return 0;
 80001c8:	2300      	movs	r3, #0
}
 80001ca:	4618      	mov	r0, r3
 80001cc:	46bd      	mov	sp, r7
 80001ce:	bc80      	pop	{r7}
 80001d0:	4770      	bx	lr
 80001d2:	bf00      	nop
 80001d4:	20000050 	.word	0x20000050

080001d8 <getKeyInput>:

void getKeyInput() {
 80001d8:	b580      	push	{r7, lr}
 80001da:	af00      	add	r7, sp, #0
	KeyGen0 = KeyGen1;
 80001dc:	4b17      	ldr	r3, [pc, #92]	; (800023c <getKeyInput+0x64>)
 80001de:	681b      	ldr	r3, [r3, #0]
 80001e0:	4a17      	ldr	r2, [pc, #92]	; (8000240 <getKeyInput+0x68>)
 80001e2:	6013      	str	r3, [r2, #0]
	KeyGen1 = KeyGen2;
 80001e4:	4b17      	ldr	r3, [pc, #92]	; (8000244 <getKeyInput+0x6c>)
 80001e6:	681b      	ldr	r3, [r3, #0]
 80001e8:	4a14      	ldr	r2, [pc, #80]	; (800023c <getKeyInput+0x64>)
 80001ea:	6013      	str	r3, [r2, #0]
	KeyGen2 = HAL_GPIO_ReadPin(BUTTON_GPIO_Port, BUTTON_Pin);
 80001ec:	f44f 5100 	mov.w	r1, #8192	; 0x2000
 80001f0:	4815      	ldr	r0, [pc, #84]	; (8000248 <getKeyInput+0x70>)
 80001f2:	f000 fea7 	bl	8000f44 <HAL_GPIO_ReadPin>
 80001f6:	4603      	mov	r3, r0
 80001f8:	461a      	mov	r2, r3
 80001fa:	4b12      	ldr	r3, [pc, #72]	; (8000244 <getKeyInput+0x6c>)
 80001fc:	601a      	str	r2, [r3, #0]

	if ((KeyGen0 == KeyGen1) && (KeyGen1 == KeyGen2)) {
 80001fe:	4b10      	ldr	r3, [pc, #64]	; (8000240 <getKeyInput+0x68>)
 8000200:	681a      	ldr	r2, [r3, #0]
 8000202:	4b0e      	ldr	r3, [pc, #56]	; (800023c <getKeyInput+0x64>)
 8000204:	681b      	ldr	r3, [r3, #0]
 8000206:	429a      	cmp	r2, r3
 8000208:	d116      	bne.n	8000238 <getKeyInput+0x60>
 800020a:	4b0c      	ldr	r3, [pc, #48]	; (800023c <getKeyInput+0x64>)
 800020c:	681a      	ldr	r2, [r3, #0]
 800020e:	4b0d      	ldr	r3, [pc, #52]	; (8000244 <getKeyInput+0x6c>)
 8000210:	681b      	ldr	r3, [r3, #0]
 8000212:	429a      	cmp	r2, r3
 8000214:	d110      	bne.n	8000238 <getKeyInput+0x60>
		if (KeyGen3 != KeyGen2) {
 8000216:	4b0d      	ldr	r3, [pc, #52]	; (800024c <getKeyInput+0x74>)
 8000218:	681a      	ldr	r2, [r3, #0]
 800021a:	4b0a      	ldr	r3, [pc, #40]	; (8000244 <getKeyInput+0x6c>)
 800021c:	681b      	ldr	r3, [r3, #0]
 800021e:	429a      	cmp	r2, r3
 8000220:	d00a      	beq.n	8000238 <getKeyInput+0x60>
			KeyGen3 = KeyGen2;
 8000222:	4b08      	ldr	r3, [pc, #32]	; (8000244 <getKeyInput+0x6c>)
 8000224:	681b      	ldr	r3, [r3, #0]
 8000226:	4a09      	ldr	r2, [pc, #36]	; (800024c <getKeyInput+0x74>)
 8000228:	6013      	str	r3, [r2, #0]
			if (KeyGen2 == NORMAL_STATE) {
 800022a:	4b06      	ldr	r3, [pc, #24]	; (8000244 <getKeyInput+0x6c>)
 800022c:	681b      	ldr	r3, [r3, #0]
 800022e:	2b01      	cmp	r3, #1
 8000230:	d102      	bne.n	8000238 <getKeyInput+0x60>
				//TODO
				BUTTON_flag = 1;
 8000232:	4b07      	ldr	r3, [pc, #28]	; (8000250 <getKeyInput+0x78>)
 8000234:	2201      	movs	r2, #1
 8000236:	601a      	str	r2, [r3, #0]
			}
		}
	}
}
 8000238:	bf00      	nop
 800023a:	bd80      	pop	{r7, pc}
 800023c:	20000004 	.word	0x20000004
 8000240:	20000000 	.word	0x20000000
 8000244:	20000008 	.word	0x20000008
 8000248:	40011000 	.word	0x40011000
 800024c:	2000000c 	.word	0x2000000c
 8000250:	20000050 	.word	0x20000050

08000254 <fsm_run>:





void fsm_run() {
 8000254:	b580      	push	{r7, lr}
 8000256:	af00      	add	r7, sp, #0
	switch (fsm_status) {
 8000258:	4b7b      	ldr	r3, [pc, #492]	; (8000448 <fsm_run+0x1f4>)
 800025a:	681b      	ldr	r3, [r3, #0]
 800025c:	2b02      	cmp	r3, #2
 800025e:	f000 8107 	beq.w	8000470 <fsm_run+0x21c>
 8000262:	2b02      	cmp	r3, #2
 8000264:	f300 81a1 	bgt.w	80005aa <fsm_run+0x356>
 8000268:	2b00      	cmp	r3, #0
 800026a:	d002      	beq.n	8000272 <fsm_run+0x1e>
 800026c:	2b01      	cmp	r3, #1
 800026e:	d044      	beq.n	80002fa <fsm_run+0xa6>

			fsm_status = 2;
			break;

		default:
			break;
 8000270:	e19b      	b.n	80005aa <fsm_run+0x356>
			setTimer0(10);
 8000272:	200a      	movs	r0, #10
 8000274:	f7ff ff6a 	bl	800014c <setTimer0>
			counter = total_length;
 8000278:	4b74      	ldr	r3, [pc, #464]	; (800044c <fsm_run+0x1f8>)
 800027a:	681b      	ldr	r3, [r3, #0]
 800027c:	4a74      	ldr	r2, [pc, #464]	; (8000450 <fsm_run+0x1fc>)
 800027e:	6013      	str	r3, [r2, #0]
			HAL_GPIO_WritePin(LED_RED_GPIO_Port, LED_RED_Pin, 1);
 8000280:	2201      	movs	r2, #1
 8000282:	2120      	movs	r1, #32
 8000284:	4873      	ldr	r0, [pc, #460]	; (8000454 <fsm_run+0x200>)
 8000286:	f000 fe74 	bl	8000f72 <HAL_GPIO_WritePin>
			HAL_GPIO_WritePin(LED_RED_0_GPIO_Port, LED_RED_0_Pin, 1);
 800028a:	2201      	movs	r2, #1
 800028c:	2102      	movs	r1, #2
 800028e:	4871      	ldr	r0, [pc, #452]	; (8000454 <fsm_run+0x200>)
 8000290:	f000 fe6f 	bl	8000f72 <HAL_GPIO_WritePin>
			HAL_GPIO_WritePin(LED_YELLOW_0_GPIO_Port, LED_YELLOW_0_Pin, 1);
 8000294:	2201      	movs	r2, #1
 8000296:	2104      	movs	r1, #4
 8000298:	486e      	ldr	r0, [pc, #440]	; (8000454 <fsm_run+0x200>)
 800029a:	f000 fe6a 	bl	8000f72 <HAL_GPIO_WritePin>
			HAL_GPIO_WritePin(LED_GREEN_0_GPIO_Port, LED_GREEN_0_Pin, 1);
 800029e:	2201      	movs	r2, #1
 80002a0:	2108      	movs	r1, #8
 80002a2:	486c      	ldr	r0, [pc, #432]	; (8000454 <fsm_run+0x200>)
 80002a4:	f000 fe65 	bl	8000f72 <HAL_GPIO_WritePin>
			HAL_GPIO_WritePin(LED_RED_1_GPIO_Port, LED_RED_1_Pin, 1);
 80002a8:	2201      	movs	r2, #1
 80002aa:	2101      	movs	r1, #1
 80002ac:	486a      	ldr	r0, [pc, #424]	; (8000458 <fsm_run+0x204>)
 80002ae:	f000 fe60 	bl	8000f72 <HAL_GPIO_WritePin>
			HAL_GPIO_WritePin(LED_YELLOW_1_GPIO_Port, LED_YELLOW_1_Pin, 1);
 80002b2:	2201      	movs	r2, #1
 80002b4:	2102      	movs	r1, #2
 80002b6:	4868      	ldr	r0, [pc, #416]	; (8000458 <fsm_run+0x204>)
 80002b8:	f000 fe5b 	bl	8000f72 <HAL_GPIO_WritePin>
			HAL_GPIO_WritePin(LED_GREEN_1_GPIO_Port, LED_GREEN_1_Pin, 1);
 80002bc:	2201      	movs	r2, #1
 80002be:	2104      	movs	r1, #4
 80002c0:	4865      	ldr	r0, [pc, #404]	; (8000458 <fsm_run+0x204>)
 80002c2:	f000 fe56 	bl	8000f72 <HAL_GPIO_WritePin>
			HAL_GPIO_WritePin(PED_RED_0_GPIO_Port, PED_RED_0_Pin, 1);
 80002c6:	2201      	movs	r2, #1
 80002c8:	2140      	movs	r1, #64	; 0x40
 80002ca:	4862      	ldr	r0, [pc, #392]	; (8000454 <fsm_run+0x200>)
 80002cc:	f000 fe51 	bl	8000f72 <HAL_GPIO_WritePin>
			HAL_GPIO_WritePin(PED_GREEN_0_GPIO_Port, PED_GREEN_0_Pin, 1);
 80002d0:	2201      	movs	r2, #1
 80002d2:	2180      	movs	r1, #128	; 0x80
 80002d4:	485f      	ldr	r0, [pc, #380]	; (8000454 <fsm_run+0x200>)
 80002d6:	f000 fe4c 	bl	8000f72 <HAL_GPIO_WritePin>
			HAL_GPIO_WritePin(PED_RED_1_GPIO_Port, PED_RED_1_Pin, 1);
 80002da:	2201      	movs	r2, #1
 80002dc:	f44f 6180 	mov.w	r1, #1024	; 0x400
 80002e0:	485d      	ldr	r0, [pc, #372]	; (8000458 <fsm_run+0x204>)
 80002e2:	f000 fe46 	bl	8000f72 <HAL_GPIO_WritePin>
			HAL_GPIO_WritePin(PED_GREEN_1_GPIO_Port, PED_GREEN_1_Pin, 1);
 80002e6:	2201      	movs	r2, #1
 80002e8:	f44f 6100 	mov.w	r1, #2048	; 0x800
 80002ec:	485a      	ldr	r0, [pc, #360]	; (8000458 <fsm_run+0x204>)
 80002ee:	f000 fe40 	bl	8000f72 <HAL_GPIO_WritePin>
			fsm_status = 1;
 80002f2:	4b55      	ldr	r3, [pc, #340]	; (8000448 <fsm_run+0x1f4>)
 80002f4:	2201      	movs	r2, #1
 80002f6:	601a      	str	r2, [r3, #0]
			break;
 80002f8:	e158      	b.n	80005ac <fsm_run+0x358>
			if (green_length + yellow_length < counter && counter <= total_length) {
 80002fa:	4b58      	ldr	r3, [pc, #352]	; (800045c <fsm_run+0x208>)
 80002fc:	681a      	ldr	r2, [r3, #0]
 80002fe:	4b58      	ldr	r3, [pc, #352]	; (8000460 <fsm_run+0x20c>)
 8000300:	681b      	ldr	r3, [r3, #0]
 8000302:	441a      	add	r2, r3
 8000304:	4b52      	ldr	r3, [pc, #328]	; (8000450 <fsm_run+0x1fc>)
 8000306:	681b      	ldr	r3, [r3, #0]
 8000308:	429a      	cmp	r2, r3
 800030a:	da28      	bge.n	800035e <fsm_run+0x10a>
 800030c:	4b50      	ldr	r3, [pc, #320]	; (8000450 <fsm_run+0x1fc>)
 800030e:	681a      	ldr	r2, [r3, #0]
 8000310:	4b4e      	ldr	r3, [pc, #312]	; (800044c <fsm_run+0x1f8>)
 8000312:	681b      	ldr	r3, [r3, #0]
 8000314:	429a      	cmp	r2, r3
 8000316:	dc22      	bgt.n	800035e <fsm_run+0x10a>
				HAL_GPIO_WritePin(LED_RED_0_GPIO_Port, LED_RED_0_Pin, 0);
 8000318:	2200      	movs	r2, #0
 800031a:	2102      	movs	r1, #2
 800031c:	484d      	ldr	r0, [pc, #308]	; (8000454 <fsm_run+0x200>)
 800031e:	f000 fe28 	bl	8000f72 <HAL_GPIO_WritePin>
				HAL_GPIO_WritePin(LED_YELLOW_0_GPIO_Port, LED_YELLOW_0_Pin, 1);
 8000322:	2201      	movs	r2, #1
 8000324:	2104      	movs	r1, #4
 8000326:	484b      	ldr	r0, [pc, #300]	; (8000454 <fsm_run+0x200>)
 8000328:	f000 fe23 	bl	8000f72 <HAL_GPIO_WritePin>
				HAL_GPIO_WritePin(LED_GREEN_0_GPIO_Port, LED_GREEN_0_Pin, 1);
 800032c:	2201      	movs	r2, #1
 800032e:	2108      	movs	r1, #8
 8000330:	4848      	ldr	r0, [pc, #288]	; (8000454 <fsm_run+0x200>)
 8000332:	f000 fe1e 	bl	8000f72 <HAL_GPIO_WritePin>
				HAL_GPIO_WritePin(PED_RED_0_GPIO_Port, PED_RED_0_Pin, 1);
 8000336:	2201      	movs	r2, #1
 8000338:	2140      	movs	r1, #64	; 0x40
 800033a:	4846      	ldr	r0, [pc, #280]	; (8000454 <fsm_run+0x200>)
 800033c:	f000 fe19 	bl	8000f72 <HAL_GPIO_WritePin>
				HAL_GPIO_WritePin(PED_GREEN_0_GPIO_Port, PED_GREEN_0_Pin, 0);
 8000340:	2200      	movs	r2, #0
 8000342:	2180      	movs	r1, #128	; 0x80
 8000344:	4843      	ldr	r0, [pc, #268]	; (8000454 <fsm_run+0x200>)
 8000346:	f000 fe14 	bl	8000f72 <HAL_GPIO_WritePin>
				if (BUTTON_PRESSED() == 1) HAL_GPIO_WritePin(LED_RED_GPIO_Port, LED_RED_Pin, 0);
 800034a:	f7ff ff35 	bl	80001b8 <BUTTON_PRESSED>
 800034e:	4603      	mov	r3, r0
 8000350:	2b01      	cmp	r3, #1
 8000352:	d104      	bne.n	800035e <fsm_run+0x10a>
 8000354:	2200      	movs	r2, #0
 8000356:	2120      	movs	r1, #32
 8000358:	483e      	ldr	r0, [pc, #248]	; (8000454 <fsm_run+0x200>)
 800035a:	f000 fe0a 	bl	8000f72 <HAL_GPIO_WritePin>
			if (red_length + yellow_length < counter && counter <= total_length) {
 800035e:	4b41      	ldr	r3, [pc, #260]	; (8000464 <fsm_run+0x210>)
 8000360:	681a      	ldr	r2, [r3, #0]
 8000362:	4b3f      	ldr	r3, [pc, #252]	; (8000460 <fsm_run+0x20c>)
 8000364:	681b      	ldr	r3, [r3, #0]
 8000366:	441a      	add	r2, r3
 8000368:	4b39      	ldr	r3, [pc, #228]	; (8000450 <fsm_run+0x1fc>)
 800036a:	681b      	ldr	r3, [r3, #0]
 800036c:	429a      	cmp	r2, r3
 800036e:	da20      	bge.n	80003b2 <fsm_run+0x15e>
 8000370:	4b37      	ldr	r3, [pc, #220]	; (8000450 <fsm_run+0x1fc>)
 8000372:	681a      	ldr	r2, [r3, #0]
 8000374:	4b35      	ldr	r3, [pc, #212]	; (800044c <fsm_run+0x1f8>)
 8000376:	681b      	ldr	r3, [r3, #0]
 8000378:	429a      	cmp	r2, r3
 800037a:	dc1a      	bgt.n	80003b2 <fsm_run+0x15e>
				HAL_GPIO_WritePin(LED_RED_1_GPIO_Port, LED_RED_1_Pin, 1);
 800037c:	2201      	movs	r2, #1
 800037e:	2101      	movs	r1, #1
 8000380:	4835      	ldr	r0, [pc, #212]	; (8000458 <fsm_run+0x204>)
 8000382:	f000 fdf6 	bl	8000f72 <HAL_GPIO_WritePin>
				HAL_GPIO_WritePin(LED_YELLOW_1_GPIO_Port, LED_YELLOW_1_Pin, 1);
 8000386:	2201      	movs	r2, #1
 8000388:	2102      	movs	r1, #2
 800038a:	4833      	ldr	r0, [pc, #204]	; (8000458 <fsm_run+0x204>)
 800038c:	f000 fdf1 	bl	8000f72 <HAL_GPIO_WritePin>
				HAL_GPIO_WritePin(LED_GREEN_1_GPIO_Port, LED_GREEN_1_Pin, 0);
 8000390:	2200      	movs	r2, #0
 8000392:	2104      	movs	r1, #4
 8000394:	4830      	ldr	r0, [pc, #192]	; (8000458 <fsm_run+0x204>)
 8000396:	f000 fdec 	bl	8000f72 <HAL_GPIO_WritePin>
				HAL_GPIO_WritePin(PED_RED_1_GPIO_Port, PED_RED_1_Pin, 0);
 800039a:	2200      	movs	r2, #0
 800039c:	f44f 6180 	mov.w	r1, #1024	; 0x400
 80003a0:	482d      	ldr	r0, [pc, #180]	; (8000458 <fsm_run+0x204>)
 80003a2:	f000 fde6 	bl	8000f72 <HAL_GPIO_WritePin>
				HAL_GPIO_WritePin(PED_GREEN_1_GPIO_Port, PED_GREEN_1_Pin, 1);
 80003a6:	2201      	movs	r2, #1
 80003a8:	f44f 6100 	mov.w	r1, #2048	; 0x800
 80003ac:	482a      	ldr	r0, [pc, #168]	; (8000458 <fsm_run+0x204>)
 80003ae:	f000 fde0 	bl	8000f72 <HAL_GPIO_WritePin>
			if (red_length < counter && counter <= total_length - green_length) {
 80003b2:	4b2c      	ldr	r3, [pc, #176]	; (8000464 <fsm_run+0x210>)
 80003b4:	681a      	ldr	r2, [r3, #0]
 80003b6:	4b26      	ldr	r3, [pc, #152]	; (8000450 <fsm_run+0x1fc>)
 80003b8:	681b      	ldr	r3, [r3, #0]
 80003ba:	429a      	cmp	r2, r3
 80003bc:	da23      	bge.n	8000406 <fsm_run+0x1b2>
 80003be:	4b23      	ldr	r3, [pc, #140]	; (800044c <fsm_run+0x1f8>)
 80003c0:	681a      	ldr	r2, [r3, #0]
 80003c2:	4b26      	ldr	r3, [pc, #152]	; (800045c <fsm_run+0x208>)
 80003c4:	681b      	ldr	r3, [r3, #0]
 80003c6:	1ad2      	subs	r2, r2, r3
 80003c8:	4b21      	ldr	r3, [pc, #132]	; (8000450 <fsm_run+0x1fc>)
 80003ca:	681b      	ldr	r3, [r3, #0]
 80003cc:	429a      	cmp	r2, r3
 80003ce:	db1a      	blt.n	8000406 <fsm_run+0x1b2>
				HAL_GPIO_WritePin(LED_RED_1_GPIO_Port, LED_RED_1_Pin, 1);
 80003d0:	2201      	movs	r2, #1
 80003d2:	2101      	movs	r1, #1
 80003d4:	4820      	ldr	r0, [pc, #128]	; (8000458 <fsm_run+0x204>)
 80003d6:	f000 fdcc 	bl	8000f72 <HAL_GPIO_WritePin>
				HAL_GPIO_WritePin(LED_YELLOW_1_GPIO_Port, LED_YELLOW_1_Pin, 0);
 80003da:	2200      	movs	r2, #0
 80003dc:	2102      	movs	r1, #2
 80003de:	481e      	ldr	r0, [pc, #120]	; (8000458 <fsm_run+0x204>)
 80003e0:	f000 fdc7 	bl	8000f72 <HAL_GPIO_WritePin>
				HAL_GPIO_WritePin(LED_GREEN_1_GPIO_Port, LED_GREEN_1_Pin, 1);
 80003e4:	2201      	movs	r2, #1
 80003e6:	2104      	movs	r1, #4
 80003e8:	481b      	ldr	r0, [pc, #108]	; (8000458 <fsm_run+0x204>)
 80003ea:	f000 fdc2 	bl	8000f72 <HAL_GPIO_WritePin>
				HAL_GPIO_WritePin(PED_RED_1_GPIO_Port, PED_RED_1_Pin, 0);
 80003ee:	2200      	movs	r2, #0
 80003f0:	f44f 6180 	mov.w	r1, #1024	; 0x400
 80003f4:	4818      	ldr	r0, [pc, #96]	; (8000458 <fsm_run+0x204>)
 80003f6:	f000 fdbc 	bl	8000f72 <HAL_GPIO_WritePin>
				HAL_GPIO_WritePin(PED_GREEN_1_GPIO_Port, PED_GREEN_1_Pin, 1);
 80003fa:	2201      	movs	r2, #1
 80003fc:	f44f 6100 	mov.w	r1, #2048	; 0x800
 8000400:	4815      	ldr	r0, [pc, #84]	; (8000458 <fsm_run+0x204>)
 8000402:	f000 fdb6 	bl	8000f72 <HAL_GPIO_WritePin>
			if (timer0_flag == 1) {
 8000406:	4b18      	ldr	r3, [pc, #96]	; (8000468 <fsm_run+0x214>)
 8000408:	681b      	ldr	r3, [r3, #0]
 800040a:	2b01      	cmp	r3, #1
 800040c:	d108      	bne.n	8000420 <fsm_run+0x1cc>
				counter--;
 800040e:	4b10      	ldr	r3, [pc, #64]	; (8000450 <fsm_run+0x1fc>)
 8000410:	681b      	ldr	r3, [r3, #0]
 8000412:	3b01      	subs	r3, #1
 8000414:	4a0e      	ldr	r2, [pc, #56]	; (8000450 <fsm_run+0x1fc>)
 8000416:	6013      	str	r3, [r2, #0]
				setTimer0(1000);
 8000418:	f44f 707a 	mov.w	r0, #1000	; 0x3e8
 800041c:	f7ff fe96 	bl	800014c <setTimer0>
			if (counter == green_length + yellow_length) {
 8000420:	4b0e      	ldr	r3, [pc, #56]	; (800045c <fsm_run+0x208>)
 8000422:	681a      	ldr	r2, [r3, #0]
 8000424:	4b0e      	ldr	r3, [pc, #56]	; (8000460 <fsm_run+0x20c>)
 8000426:	681b      	ldr	r3, [r3, #0]
 8000428:	441a      	add	r2, r3
 800042a:	4b09      	ldr	r3, [pc, #36]	; (8000450 <fsm_run+0x1fc>)
 800042c:	681b      	ldr	r3, [r3, #0]
 800042e:	429a      	cmp	r2, r3
 8000430:	d106      	bne.n	8000440 <fsm_run+0x1ec>
				fsm_status = 2;
 8000432:	4b05      	ldr	r3, [pc, #20]	; (8000448 <fsm_run+0x1f4>)
 8000434:	2202      	movs	r2, #2
 8000436:	601a      	str	r2, [r3, #0]
				BUTTON_flag = 0;
 8000438:	4b0c      	ldr	r3, [pc, #48]	; (800046c <fsm_run+0x218>)
 800043a:	2200      	movs	r2, #0
 800043c:	601a      	str	r2, [r3, #0]
				break;
 800043e:	e0b5      	b.n	80005ac <fsm_run+0x358>
			fsm_status = 1;
 8000440:	4b01      	ldr	r3, [pc, #4]	; (8000448 <fsm_run+0x1f4>)
 8000442:	2201      	movs	r2, #1
 8000444:	601a      	str	r2, [r3, #0]
			break;
 8000446:	e0b1      	b.n	80005ac <fsm_run+0x358>
 8000448:	20000054 	.word	0x20000054
 800044c:	2000001c 	.word	0x2000001c
 8000450:	20000058 	.word	0x20000058
 8000454:	40010800 	.word	0x40010800
 8000458:	40010c00 	.word	0x40010c00
 800045c:	20000018 	.word	0x20000018
 8000460:	20000014 	.word	0x20000014
 8000464:	20000010 	.word	0x20000010
 8000468:	2000004c 	.word	0x2000004c
 800046c:	20000050 	.word	0x20000050
			if (yellow_length < counter && counter <= green_length + yellow_length) {
 8000470:	4b4f      	ldr	r3, [pc, #316]	; (80005b0 <fsm_run+0x35c>)
 8000472:	681a      	ldr	r2, [r3, #0]
 8000474:	4b4f      	ldr	r3, [pc, #316]	; (80005b4 <fsm_run+0x360>)
 8000476:	681b      	ldr	r3, [r3, #0]
 8000478:	429a      	cmp	r2, r3
 800047a:	da2b      	bge.n	80004d4 <fsm_run+0x280>
 800047c:	4b4e      	ldr	r3, [pc, #312]	; (80005b8 <fsm_run+0x364>)
 800047e:	681a      	ldr	r2, [r3, #0]
 8000480:	4b4b      	ldr	r3, [pc, #300]	; (80005b0 <fsm_run+0x35c>)
 8000482:	681b      	ldr	r3, [r3, #0]
 8000484:	441a      	add	r2, r3
 8000486:	4b4b      	ldr	r3, [pc, #300]	; (80005b4 <fsm_run+0x360>)
 8000488:	681b      	ldr	r3, [r3, #0]
 800048a:	429a      	cmp	r2, r3
 800048c:	db22      	blt.n	80004d4 <fsm_run+0x280>
				HAL_GPIO_WritePin(LED_RED_0_GPIO_Port, LED_RED_0_Pin, 1);
 800048e:	2201      	movs	r2, #1
 8000490:	2102      	movs	r1, #2
 8000492:	484a      	ldr	r0, [pc, #296]	; (80005bc <fsm_run+0x368>)
 8000494:	f000 fd6d 	bl	8000f72 <HAL_GPIO_WritePin>
				HAL_GPIO_WritePin(LED_YELLOW_0_GPIO_Port, LED_YELLOW_0_Pin, 1);
 8000498:	2201      	movs	r2, #1
 800049a:	2104      	movs	r1, #4
 800049c:	4847      	ldr	r0, [pc, #284]	; (80005bc <fsm_run+0x368>)
 800049e:	f000 fd68 	bl	8000f72 <HAL_GPIO_WritePin>
				HAL_GPIO_WritePin(LED_GREEN_0_GPIO_Port, LED_GREEN_0_Pin, 0);
 80004a2:	2200      	movs	r2, #0
 80004a4:	2108      	movs	r1, #8
 80004a6:	4845      	ldr	r0, [pc, #276]	; (80005bc <fsm_run+0x368>)
 80004a8:	f000 fd63 	bl	8000f72 <HAL_GPIO_WritePin>
				HAL_GPIO_WritePin(PED_RED_0_GPIO_Port, PED_RED_0_Pin, 0);
 80004ac:	2200      	movs	r2, #0
 80004ae:	2140      	movs	r1, #64	; 0x40
 80004b0:	4842      	ldr	r0, [pc, #264]	; (80005bc <fsm_run+0x368>)
 80004b2:	f000 fd5e 	bl	8000f72 <HAL_GPIO_WritePin>
				HAL_GPIO_WritePin(PED_GREEN_0_GPIO_Port, PED_GREEN_0_Pin, 1);
 80004b6:	2201      	movs	r2, #1
 80004b8:	2180      	movs	r1, #128	; 0x80
 80004ba:	4840      	ldr	r0, [pc, #256]	; (80005bc <fsm_run+0x368>)
 80004bc:	f000 fd59 	bl	8000f72 <HAL_GPIO_WritePin>
				if (BUTTON_PRESSED() == 0) HAL_GPIO_WritePin(LED_RED_GPIO_Port, LED_RED_Pin, 1);
 80004c0:	f7ff fe7a 	bl	80001b8 <BUTTON_PRESSED>
 80004c4:	4603      	mov	r3, r0
 80004c6:	2b00      	cmp	r3, #0
 80004c8:	d104      	bne.n	80004d4 <fsm_run+0x280>
 80004ca:	2201      	movs	r2, #1
 80004cc:	2120      	movs	r1, #32
 80004ce:	483b      	ldr	r0, [pc, #236]	; (80005bc <fsm_run+0x368>)
 80004d0:	f000 fd4f 	bl	8000f72 <HAL_GPIO_WritePin>
			if (0 < counter && counter <= yellow_length) {
 80004d4:	4b37      	ldr	r3, [pc, #220]	; (80005b4 <fsm_run+0x360>)
 80004d6:	681b      	ldr	r3, [r3, #0]
 80004d8:	2b00      	cmp	r3, #0
 80004da:	dd28      	ble.n	800052e <fsm_run+0x2da>
 80004dc:	4b35      	ldr	r3, [pc, #212]	; (80005b4 <fsm_run+0x360>)
 80004de:	681a      	ldr	r2, [r3, #0]
 80004e0:	4b33      	ldr	r3, [pc, #204]	; (80005b0 <fsm_run+0x35c>)
 80004e2:	681b      	ldr	r3, [r3, #0]
 80004e4:	429a      	cmp	r2, r3
 80004e6:	dc22      	bgt.n	800052e <fsm_run+0x2da>
				HAL_GPIO_WritePin(LED_RED_0_GPIO_Port, LED_RED_0_Pin, 1);
 80004e8:	2201      	movs	r2, #1
 80004ea:	2102      	movs	r1, #2
 80004ec:	4833      	ldr	r0, [pc, #204]	; (80005bc <fsm_run+0x368>)
 80004ee:	f000 fd40 	bl	8000f72 <HAL_GPIO_WritePin>
				HAL_GPIO_WritePin(LED_YELLOW_0_GPIO_Port, LED_YELLOW_0_Pin, 0);
 80004f2:	2200      	movs	r2, #0
 80004f4:	2104      	movs	r1, #4
 80004f6:	4831      	ldr	r0, [pc, #196]	; (80005bc <fsm_run+0x368>)
 80004f8:	f000 fd3b 	bl	8000f72 <HAL_GPIO_WritePin>
				HAL_GPIO_WritePin(LED_GREEN_0_GPIO_Port, LED_GREEN_0_Pin, 1);
 80004fc:	2201      	movs	r2, #1
 80004fe:	2108      	movs	r1, #8
 8000500:	482e      	ldr	r0, [pc, #184]	; (80005bc <fsm_run+0x368>)
 8000502:	f000 fd36 	bl	8000f72 <HAL_GPIO_WritePin>
				HAL_GPIO_WritePin(PED_RED_0_GPIO_Port, PED_RED_0_Pin, 0);
 8000506:	2200      	movs	r2, #0
 8000508:	2140      	movs	r1, #64	; 0x40
 800050a:	482c      	ldr	r0, [pc, #176]	; (80005bc <fsm_run+0x368>)
 800050c:	f000 fd31 	bl	8000f72 <HAL_GPIO_WritePin>
				HAL_GPIO_WritePin(PED_GREEN_0_GPIO_Port, PED_GREEN_0_Pin, 1);
 8000510:	2201      	movs	r2, #1
 8000512:	2180      	movs	r1, #128	; 0x80
 8000514:	4829      	ldr	r0, [pc, #164]	; (80005bc <fsm_run+0x368>)
 8000516:	f000 fd2c 	bl	8000f72 <HAL_GPIO_WritePin>
				if (BUTTON_PRESSED() == 0) HAL_GPIO_WritePin(LED_RED_GPIO_Port, LED_RED_Pin, 1);
 800051a:	f7ff fe4d 	bl	80001b8 <BUTTON_PRESSED>
 800051e:	4603      	mov	r3, r0
 8000520:	2b00      	cmp	r3, #0
 8000522:	d104      	bne.n	800052e <fsm_run+0x2da>
 8000524:	2201      	movs	r2, #1
 8000526:	2120      	movs	r1, #32
 8000528:	4824      	ldr	r0, [pc, #144]	; (80005bc <fsm_run+0x368>)
 800052a:	f000 fd22 	bl	8000f72 <HAL_GPIO_WritePin>
			if (0 < counter && counter <= red_length) {
 800052e:	4b21      	ldr	r3, [pc, #132]	; (80005b4 <fsm_run+0x360>)
 8000530:	681b      	ldr	r3, [r3, #0]
 8000532:	2b00      	cmp	r3, #0
 8000534:	dd20      	ble.n	8000578 <fsm_run+0x324>
 8000536:	4b1f      	ldr	r3, [pc, #124]	; (80005b4 <fsm_run+0x360>)
 8000538:	681a      	ldr	r2, [r3, #0]
 800053a:	4b21      	ldr	r3, [pc, #132]	; (80005c0 <fsm_run+0x36c>)
 800053c:	681b      	ldr	r3, [r3, #0]
 800053e:	429a      	cmp	r2, r3
 8000540:	dc1a      	bgt.n	8000578 <fsm_run+0x324>
				HAL_GPIO_WritePin(LED_RED_1_GPIO_Port, LED_RED_1_Pin, 0);
 8000542:	2200      	movs	r2, #0
 8000544:	2101      	movs	r1, #1
 8000546:	481f      	ldr	r0, [pc, #124]	; (80005c4 <fsm_run+0x370>)
 8000548:	f000 fd13 	bl	8000f72 <HAL_GPIO_WritePin>
				HAL_GPIO_WritePin(LED_YELLOW_1_GPIO_Port, LED_YELLOW_1_Pin, 1);
 800054c:	2201      	movs	r2, #1
 800054e:	2102      	movs	r1, #2
 8000550:	481c      	ldr	r0, [pc, #112]	; (80005c4 <fsm_run+0x370>)
 8000552:	f000 fd0e 	bl	8000f72 <HAL_GPIO_WritePin>
				HAL_GPIO_WritePin(LED_GREEN_1_GPIO_Port, LED_GREEN_1_Pin, 1);
 8000556:	2201      	movs	r2, #1
 8000558:	2104      	movs	r1, #4
 800055a:	481a      	ldr	r0, [pc, #104]	; (80005c4 <fsm_run+0x370>)
 800055c:	f000 fd09 	bl	8000f72 <HAL_GPIO_WritePin>
				HAL_GPIO_WritePin(PED_RED_1_GPIO_Port, PED_RED_1_Pin, 1);
 8000560:	2201      	movs	r2, #1
 8000562:	f44f 6180 	mov.w	r1, #1024	; 0x400
 8000566:	4817      	ldr	r0, [pc, #92]	; (80005c4 <fsm_run+0x370>)
 8000568:	f000 fd03 	bl	8000f72 <HAL_GPIO_WritePin>
				HAL_GPIO_WritePin(PED_GREEN_1_GPIO_Port, PED_GREEN_1_Pin, 0);
 800056c:	2200      	movs	r2, #0
 800056e:	f44f 6100 	mov.w	r1, #2048	; 0x800
 8000572:	4814      	ldr	r0, [pc, #80]	; (80005c4 <fsm_run+0x370>)
 8000574:	f000 fcfd 	bl	8000f72 <HAL_GPIO_WritePin>
			if (timer0_flag == 1) {
 8000578:	4b13      	ldr	r3, [pc, #76]	; (80005c8 <fsm_run+0x374>)
 800057a:	681b      	ldr	r3, [r3, #0]
 800057c:	2b01      	cmp	r3, #1
 800057e:	d108      	bne.n	8000592 <fsm_run+0x33e>
				counter--;
 8000580:	4b0c      	ldr	r3, [pc, #48]	; (80005b4 <fsm_run+0x360>)
 8000582:	681b      	ldr	r3, [r3, #0]
 8000584:	3b01      	subs	r3, #1
 8000586:	4a0b      	ldr	r2, [pc, #44]	; (80005b4 <fsm_run+0x360>)
 8000588:	6013      	str	r3, [r2, #0]
				setTimer0(1000);
 800058a:	f44f 707a 	mov.w	r0, #1000	; 0x3e8
 800058e:	f7ff fddd 	bl	800014c <setTimer0>
			if (counter == 0) {
 8000592:	4b08      	ldr	r3, [pc, #32]	; (80005b4 <fsm_run+0x360>)
 8000594:	681b      	ldr	r3, [r3, #0]
 8000596:	2b00      	cmp	r3, #0
 8000598:	d103      	bne.n	80005a2 <fsm_run+0x34e>
				fsm_status = 0;
 800059a:	4b0c      	ldr	r3, [pc, #48]	; (80005cc <fsm_run+0x378>)
 800059c:	2200      	movs	r2, #0
 800059e:	601a      	str	r2, [r3, #0]
				break;
 80005a0:	e004      	b.n	80005ac <fsm_run+0x358>
			fsm_status = 2;
 80005a2:	4b0a      	ldr	r3, [pc, #40]	; (80005cc <fsm_run+0x378>)
 80005a4:	2202      	movs	r2, #2
 80005a6:	601a      	str	r2, [r3, #0]
			break;
 80005a8:	e000      	b.n	80005ac <fsm_run+0x358>
			break;
 80005aa:	bf00      	nop
	}
}
 80005ac:	bf00      	nop
 80005ae:	bd80      	pop	{r7, pc}
 80005b0:	20000014 	.word	0x20000014
 80005b4:	20000058 	.word	0x20000058
 80005b8:	20000018 	.word	0x20000018
 80005bc:	40010800 	.word	0x40010800
 80005c0:	20000010 	.word	0x20000010
 80005c4:	40010c00 	.word	0x40010c00
 80005c8:	2000004c 	.word	0x2000004c
 80005cc:	20000054 	.word	0x20000054

080005d0 <main>:
/**
  * @brief  The application entry point.
  * @retval int
  */
int main(void)
{
 80005d0:	b580      	push	{r7, lr}
 80005d2:	af00      	add	r7, sp, #0
  /* USER CODE END 1 */

  /* MCU Configuration--------------------------------------------------------*/

  /* Reset of all peripherals, Initializes the Flash interface and the Systick. */
  HAL_Init();
 80005d4:	f000 f9cc 	bl	8000970 <HAL_Init>
  /* USER CODE BEGIN Init */

  /* USER CODE END Init */

  /* Configure the system clock */
  SystemClock_Config();
 80005d8:	f000 f80c 	bl	80005f4 <SystemClock_Config>
  /* USER CODE BEGIN SysInit */

  /* USER CODE END SysInit */

  /* Initialize all configured peripherals */
  MX_GPIO_Init();
 80005dc:	f000 f892 	bl	8000704 <MX_GPIO_Init>
  MX_TIM2_Init();
 80005e0:	f000 f844 	bl	800066c <MX_TIM2_Init>
  /* USER CODE BEGIN 2 */
  HAL_TIM_Base_Start_IT(&htim2);
 80005e4:	4802      	ldr	r0, [pc, #8]	; (80005f0 <main+0x20>)
 80005e6:	f001 f915 	bl	8001814 <HAL_TIM_Base_Start_IT>
  /* Infinite loop */
  /* USER CODE BEGIN WHILE */
  while (1)
  {

	  fsm_run();
 80005ea:	f7ff fe33 	bl	8000254 <fsm_run>
 80005ee:	e7fc      	b.n	80005ea <main+0x1a>
 80005f0:	2000005c 	.word	0x2000005c

080005f4 <SystemClock_Config>:
/**
  * @brief System Clock Configuration
  * @retval None
  */
void SystemClock_Config(void)
{
 80005f4:	b580      	push	{r7, lr}
 80005f6:	b090      	sub	sp, #64	; 0x40
 80005f8:	af00      	add	r7, sp, #0
  RCC_OscInitTypeDef RCC_OscInitStruct = {0};
 80005fa:	f107 0318 	add.w	r3, r7, #24
 80005fe:	2228      	movs	r2, #40	; 0x28
 8000600:	2100      	movs	r1, #0
 8000602:	4618      	mov	r0, r3
 8000604:	f001 fcbe 	bl	8001f84 <memset>
  RCC_ClkInitTypeDef RCC_ClkInitStruct = {0};
 8000608:	1d3b      	adds	r3, r7, #4
 800060a:	2200      	movs	r2, #0
 800060c:	601a      	str	r2, [r3, #0]
 800060e:	605a      	str	r2, [r3, #4]
 8000610:	609a      	str	r2, [r3, #8]
 8000612:	60da      	str	r2, [r3, #12]
 8000614:	611a      	str	r2, [r3, #16]

  /** Initializes the RCC Oscillators according to the specified parameters
  * in the RCC_OscInitTypeDef structure.
  */
  RCC_OscInitStruct.OscillatorType = RCC_OSCILLATORTYPE_HSI;
 8000616:	2302      	movs	r3, #2
 8000618:	61bb      	str	r3, [r7, #24]
  RCC_OscInitStruct.HSIState = RCC_HSI_ON;
 800061a:	2301      	movs	r3, #1
 800061c:	62bb      	str	r3, [r7, #40]	; 0x28
  RCC_OscInitStruct.HSICalibrationValue = RCC_HSICALIBRATION_DEFAULT;
 800061e:	2310      	movs	r3, #16
 8000620:	62fb      	str	r3, [r7, #44]	; 0x2c
  RCC_OscInitStruct.PLL.PLLState = RCC_PLL_NONE;
 8000622:	2300      	movs	r3, #0
 8000624:	637b      	str	r3, [r7, #52]	; 0x34
  if (HAL_RCC_OscConfig(&RCC_OscInitStruct) != HAL_OK)
 8000626:	f107 0318 	add.w	r3, r7, #24
 800062a:	4618      	mov	r0, r3
 800062c:	f000 fcba 	bl	8000fa4 <HAL_RCC_OscConfig>
 8000630:	4603      	mov	r3, r0
 8000632:	2b00      	cmp	r3, #0
 8000634:	d001      	beq.n	800063a <SystemClock_Config+0x46>
  {
    Error_Handler();
 8000636:	f000 f8e1 	bl	80007fc <Error_Handler>
  }
  /** Initializes the CPU, AHB and APB buses clocks
  */
  RCC_ClkInitStruct.ClockType = RCC_CLOCKTYPE_HCLK|RCC_CLOCKTYPE_SYSCLK
 800063a:	230f      	movs	r3, #15
 800063c:	607b      	str	r3, [r7, #4]
                              |RCC_CLOCKTYPE_PCLK1|RCC_CLOCKTYPE_PCLK2;
  RCC_ClkInitStruct.SYSCLKSource = RCC_SYSCLKSOURCE_HSI;
 800063e:	2300      	movs	r3, #0
 8000640:	60bb      	str	r3, [r7, #8]
  RCC_ClkInitStruct.AHBCLKDivider = RCC_SYSCLK_DIV1;
 8000642:	2300      	movs	r3, #0
 8000644:	60fb      	str	r3, [r7, #12]
  RCC_ClkInitStruct.APB1CLKDivider = RCC_HCLK_DIV1;
 8000646:	2300      	movs	r3, #0
 8000648:	613b      	str	r3, [r7, #16]
  RCC_ClkInitStruct.APB2CLKDivider = RCC_HCLK_DIV1;
 800064a:	2300      	movs	r3, #0
 800064c:	617b      	str	r3, [r7, #20]

  if (HAL_RCC_ClockConfig(&RCC_ClkInitStruct, FLASH_LATENCY_0) != HAL_OK)
 800064e:	1d3b      	adds	r3, r7, #4
 8000650:	2100      	movs	r1, #0
 8000652:	4618      	mov	r0, r3
 8000654:	f000 ff26 	bl	80014a4 <HAL_RCC_ClockConfig>
 8000658:	4603      	mov	r3, r0
 800065a:	2b00      	cmp	r3, #0
 800065c:	d001      	beq.n	8000662 <SystemClock_Config+0x6e>
  {
    Error_Handler();
 800065e:	f000 f8cd 	bl	80007fc <Error_Handler>
  }
}
 8000662:	bf00      	nop
 8000664:	3740      	adds	r7, #64	; 0x40
 8000666:	46bd      	mov	sp, r7
 8000668:	bd80      	pop	{r7, pc}
	...

0800066c <MX_TIM2_Init>:
  * @brief TIM2 Initialization Function
  * @param None
  * @retval None
  */
static void MX_TIM2_Init(void)
{
 800066c:	b580      	push	{r7, lr}
 800066e:	b086      	sub	sp, #24
 8000670:	af00      	add	r7, sp, #0

  /* USER CODE BEGIN TIM2_Init 0 */

  /* USER CODE END TIM2_Init 0 */

  TIM_ClockConfigTypeDef sClockSourceConfig = {0};
 8000672:	f107 0308 	add.w	r3, r7, #8
 8000676:	2200      	movs	r2, #0
 8000678:	601a      	str	r2, [r3, #0]
 800067a:	605a      	str	r2, [r3, #4]
 800067c:	609a      	str	r2, [r3, #8]
 800067e:	60da      	str	r2, [r3, #12]
  TIM_MasterConfigTypeDef sMasterConfig = {0};
 8000680:	463b      	mov	r3, r7
 8000682:	2200      	movs	r2, #0
 8000684:	601a      	str	r2, [r3, #0]
 8000686:	605a      	str	r2, [r3, #4]

  /* USER CODE BEGIN TIM2_Init 1 */

  /* USER CODE END TIM2_Init 1 */
  htim2.Instance = TIM2;
 8000688:	4b1d      	ldr	r3, [pc, #116]	; (8000700 <MX_TIM2_Init+0x94>)
 800068a:	f04f 4280 	mov.w	r2, #1073741824	; 0x40000000
 800068e:	601a      	str	r2, [r3, #0]
  htim2.Init.Prescaler = 7999;
 8000690:	4b1b      	ldr	r3, [pc, #108]	; (8000700 <MX_TIM2_Init+0x94>)
 8000692:	f641 723f 	movw	r2, #7999	; 0x1f3f
 8000696:	605a      	str	r2, [r3, #4]
  htim2.Init.CounterMode = TIM_COUNTERMODE_UP;
 8000698:	4b19      	ldr	r3, [pc, #100]	; (8000700 <MX_TIM2_Init+0x94>)
 800069a:	2200      	movs	r2, #0
 800069c:	609a      	str	r2, [r3, #8]
  htim2.Init.Period = 9;
 800069e:	4b18      	ldr	r3, [pc, #96]	; (8000700 <MX_TIM2_Init+0x94>)
 80006a0:	2209      	movs	r2, #9
 80006a2:	60da      	str	r2, [r3, #12]
  htim2.Init.ClockDivision = TIM_CLOCKDIVISION_DIV1;
 80006a4:	4b16      	ldr	r3, [pc, #88]	; (8000700 <MX_TIM2_Init+0x94>)
 80006a6:	2200      	movs	r2, #0
 80006a8:	611a      	str	r2, [r3, #16]
  htim2.Init.AutoReloadPreload = TIM_AUTORELOAD_PRELOAD_DISABLE;
 80006aa:	4b15      	ldr	r3, [pc, #84]	; (8000700 <MX_TIM2_Init+0x94>)
 80006ac:	2200      	movs	r2, #0
 80006ae:	619a      	str	r2, [r3, #24]
  if (HAL_TIM_Base_Init(&htim2) != HAL_OK)
 80006b0:	4813      	ldr	r0, [pc, #76]	; (8000700 <MX_TIM2_Init+0x94>)
 80006b2:	f001 f85f 	bl	8001774 <HAL_TIM_Base_Init>
 80006b6:	4603      	mov	r3, r0
 80006b8:	2b00      	cmp	r3, #0
 80006ba:	d001      	beq.n	80006c0 <MX_TIM2_Init+0x54>
  {
    Error_Handler();
 80006bc:	f000 f89e 	bl	80007fc <Error_Handler>
  }
  sClockSourceConfig.ClockSource = TIM_CLOCKSOURCE_INTERNAL;
 80006c0:	f44f 5380 	mov.w	r3, #4096	; 0x1000
 80006c4:	60bb      	str	r3, [r7, #8]
  if (HAL_TIM_ConfigClockSource(&htim2, &sClockSourceConfig) != HAL_OK)
 80006c6:	f107 0308 	add.w	r3, r7, #8
 80006ca:	4619      	mov	r1, r3
 80006cc:	480c      	ldr	r0, [pc, #48]	; (8000700 <MX_TIM2_Init+0x94>)
 80006ce:	f001 f9f5 	bl	8001abc <HAL_TIM_ConfigClockSource>
 80006d2:	4603      	mov	r3, r0
 80006d4:	2b00      	cmp	r3, #0
 80006d6:	d001      	beq.n	80006dc <MX_TIM2_Init+0x70>
  {
    Error_Handler();
 80006d8:	f000 f890 	bl	80007fc <Error_Handler>
  }
  sMasterConfig.MasterOutputTrigger = TIM_TRGO_RESET;
 80006dc:	2300      	movs	r3, #0
 80006de:	603b      	str	r3, [r7, #0]
  sMasterConfig.MasterSlaveMode = TIM_MASTERSLAVEMODE_DISABLE;
 80006e0:	2300      	movs	r3, #0
 80006e2:	607b      	str	r3, [r7, #4]
  if (HAL_TIMEx_MasterConfigSynchronization(&htim2, &sMasterConfig) != HAL_OK)
 80006e4:	463b      	mov	r3, r7
 80006e6:	4619      	mov	r1, r3
 80006e8:	4805      	ldr	r0, [pc, #20]	; (8000700 <MX_TIM2_Init+0x94>)
 80006ea:	f001 fbbd 	bl	8001e68 <HAL_TIMEx_MasterConfigSynchronization>
 80006ee:	4603      	mov	r3, r0
 80006f0:	2b00      	cmp	r3, #0
 80006f2:	d001      	beq.n	80006f8 <MX_TIM2_Init+0x8c>
  {
    Error_Handler();
 80006f4:	f000 f882 	bl	80007fc <Error_Handler>
  }
  /* USER CODE BEGIN TIM2_Init 2 */

  /* USER CODE END TIM2_Init 2 */

}
 80006f8:	bf00      	nop
 80006fa:	3718      	adds	r7, #24
 80006fc:	46bd      	mov	sp, r7
 80006fe:	bd80      	pop	{r7, pc}
 8000700:	2000005c 	.word	0x2000005c

08000704 <MX_GPIO_Init>:
  * @brief GPIO Initialization Function
  * @param None
  * @retval None
  */
static void MX_GPIO_Init(void)
{
 8000704:	b580      	push	{r7, lr}
 8000706:	b088      	sub	sp, #32
 8000708:	af00      	add	r7, sp, #0
  GPIO_InitTypeDef GPIO_InitStruct = {0};
 800070a:	f107 0310 	add.w	r3, r7, #16
 800070e:	2200      	movs	r2, #0
 8000710:	601a      	str	r2, [r3, #0]
 8000712:	605a      	str	r2, [r3, #4]
 8000714:	609a      	str	r2, [r3, #8]
 8000716:	60da      	str	r2, [r3, #12]

  /* GPIO Ports Clock Enable */
  __HAL_RCC_GPIOC_CLK_ENABLE();
 8000718:	4b2e      	ldr	r3, [pc, #184]	; (80007d4 <MX_GPIO_Init+0xd0>)
 800071a:	699b      	ldr	r3, [r3, #24]
 800071c:	4a2d      	ldr	r2, [pc, #180]	; (80007d4 <MX_GPIO_Init+0xd0>)
 800071e:	f043 0310 	orr.w	r3, r3, #16
 8000722:	6193      	str	r3, [r2, #24]
 8000724:	4b2b      	ldr	r3, [pc, #172]	; (80007d4 <MX_GPIO_Init+0xd0>)
 8000726:	699b      	ldr	r3, [r3, #24]
 8000728:	f003 0310 	and.w	r3, r3, #16
 800072c:	60fb      	str	r3, [r7, #12]
 800072e:	68fb      	ldr	r3, [r7, #12]
  __HAL_RCC_GPIOA_CLK_ENABLE();
 8000730:	4b28      	ldr	r3, [pc, #160]	; (80007d4 <MX_GPIO_Init+0xd0>)
 8000732:	699b      	ldr	r3, [r3, #24]
 8000734:	4a27      	ldr	r2, [pc, #156]	; (80007d4 <MX_GPIO_Init+0xd0>)
 8000736:	f043 0304 	orr.w	r3, r3, #4
 800073a:	6193      	str	r3, [r2, #24]
 800073c:	4b25      	ldr	r3, [pc, #148]	; (80007d4 <MX_GPIO_Init+0xd0>)
 800073e:	699b      	ldr	r3, [r3, #24]
 8000740:	f003 0304 	and.w	r3, r3, #4
 8000744:	60bb      	str	r3, [r7, #8]
 8000746:	68bb      	ldr	r3, [r7, #8]
  __HAL_RCC_GPIOB_CLK_ENABLE();
 8000748:	4b22      	ldr	r3, [pc, #136]	; (80007d4 <MX_GPIO_Init+0xd0>)
 800074a:	699b      	ldr	r3, [r3, #24]
 800074c:	4a21      	ldr	r2, [pc, #132]	; (80007d4 <MX_GPIO_Init+0xd0>)
 800074e:	f043 0308 	orr.w	r3, r3, #8
 8000752:	6193      	str	r3, [r2, #24]
 8000754:	4b1f      	ldr	r3, [pc, #124]	; (80007d4 <MX_GPIO_Init+0xd0>)
 8000756:	699b      	ldr	r3, [r3, #24]
 8000758:	f003 0308 	and.w	r3, r3, #8
 800075c:	607b      	str	r3, [r7, #4]
 800075e:	687b      	ldr	r3, [r7, #4]

  /*Configure GPIO pin Output Level */
  HAL_GPIO_WritePin(GPIOA, LED_RED_0_Pin|LED_YELLOW_0_Pin|LED_GREEN_0_Pin|LED_RED_Pin
 8000760:	2200      	movs	r2, #0
 8000762:	21ee      	movs	r1, #238	; 0xee
 8000764:	481c      	ldr	r0, [pc, #112]	; (80007d8 <MX_GPIO_Init+0xd4>)
 8000766:	f000 fc04 	bl	8000f72 <HAL_GPIO_WritePin>
                          |PED_RED_0_Pin|PED_GREEN_0_Pin, GPIO_PIN_RESET);

  /*Configure GPIO pin Output Level */
  HAL_GPIO_WritePin(GPIOB, LED_RED_1_Pin|LED_YELLOW_1_Pin|LED_GREEN_1_Pin|PED_RED_1_Pin
 800076a:	2200      	movs	r2, #0
 800076c:	f640 4107 	movw	r1, #3079	; 0xc07
 8000770:	481a      	ldr	r0, [pc, #104]	; (80007dc <MX_GPIO_Init+0xd8>)
 8000772:	f000 fbfe 	bl	8000f72 <HAL_GPIO_WritePin>
                          |PED_GREEN_1_Pin, GPIO_PIN_RESET);

  /*Configure GPIO pin : BUTTON_Pin */
  GPIO_InitStruct.Pin = BUTTON_Pin;
 8000776:	f44f 5300 	mov.w	r3, #8192	; 0x2000
 800077a:	613b      	str	r3, [r7, #16]
  GPIO_InitStruct.Mode = GPIO_MODE_INPUT;
 800077c:	2300      	movs	r3, #0
 800077e:	617b      	str	r3, [r7, #20]
  GPIO_InitStruct.Pull = GPIO_PULLUP;
 8000780:	2301      	movs	r3, #1
 8000782:	61bb      	str	r3, [r7, #24]
  HAL_GPIO_Init(BUTTON_GPIO_Port, &GPIO_InitStruct);
 8000784:	f107 0310 	add.w	r3, r7, #16
 8000788:	4619      	mov	r1, r3
 800078a:	4815      	ldr	r0, [pc, #84]	; (80007e0 <MX_GPIO_Init+0xdc>)
 800078c:	f000 fa60 	bl	8000c50 <HAL_GPIO_Init>

  /*Configure GPIO pins : LED_RED_0_Pin LED_YELLOW_0_Pin LED_GREEN_0_Pin LED_RED_Pin
                           PED_RED_0_Pin PED_GREEN_0_Pin */
  GPIO_InitStruct.Pin = LED_RED_0_Pin|LED_YELLOW_0_Pin|LED_GREEN_0_Pin|LED_RED_Pin
 8000790:	23ee      	movs	r3, #238	; 0xee
 8000792:	613b      	str	r3, [r7, #16]
                          |PED_RED_0_Pin|PED_GREEN_0_Pin;
  GPIO_InitStruct.Mode = GPIO_MODE_OUTPUT_PP;
 8000794:	2301      	movs	r3, #1
 8000796:	617b      	str	r3, [r7, #20]
  GPIO_InitStruct.Pull = GPIO_NOPULL;
 8000798:	2300      	movs	r3, #0
 800079a:	61bb      	str	r3, [r7, #24]
  GPIO_InitStruct.Speed = GPIO_SPEED_FREQ_LOW;
 800079c:	2302      	movs	r3, #2
 800079e:	61fb      	str	r3, [r7, #28]
  HAL_GPIO_Init(GPIOA, &GPIO_InitStruct);
 80007a0:	f107 0310 	add.w	r3, r7, #16
 80007a4:	4619      	mov	r1, r3
 80007a6:	480c      	ldr	r0, [pc, #48]	; (80007d8 <MX_GPIO_Init+0xd4>)
 80007a8:	f000 fa52 	bl	8000c50 <HAL_GPIO_Init>

  /*Configure GPIO pins : LED_RED_1_Pin LED_YELLOW_1_Pin LED_GREEN_1_Pin PED_RED_1_Pin
                           PED_GREEN_1_Pin */
  GPIO_InitStruct.Pin = LED_RED_1_Pin|LED_YELLOW_1_Pin|LED_GREEN_1_Pin|PED_RED_1_Pin
 80007ac:	f640 4307 	movw	r3, #3079	; 0xc07
 80007b0:	613b      	str	r3, [r7, #16]
                          |PED_GREEN_1_Pin;
  GPIO_InitStruct.Mode = GPIO_MODE_OUTPUT_PP;
 80007b2:	2301      	movs	r3, #1
 80007b4:	617b      	str	r3, [r7, #20]
  GPIO_InitStruct.Pull = GPIO_NOPULL;
 80007b6:	2300      	movs	r3, #0
 80007b8:	61bb      	str	r3, [r7, #24]
  GPIO_InitStruct.Speed = GPIO_SPEED_FREQ_LOW;
 80007ba:	2302      	movs	r3, #2
 80007bc:	61fb      	str	r3, [r7, #28]
  HAL_GPIO_Init(GPIOB, &GPIO_InitStruct);
 80007be:	f107 0310 	add.w	r3, r7, #16
 80007c2:	4619      	mov	r1, r3
 80007c4:	4805      	ldr	r0, [pc, #20]	; (80007dc <MX_GPIO_Init+0xd8>)
 80007c6:	f000 fa43 	bl	8000c50 <HAL_GPIO_Init>

}
 80007ca:	bf00      	nop
 80007cc:	3720      	adds	r7, #32
 80007ce:	46bd      	mov	sp, r7
 80007d0:	bd80      	pop	{r7, pc}
 80007d2:	bf00      	nop
 80007d4:	40021000 	.word	0x40021000
 80007d8:	40010800 	.word	0x40010800
 80007dc:	40010c00 	.word	0x40010c00
 80007e0:	40011000 	.word	0x40011000

080007e4 <HAL_TIM_PeriodElapsedCallback>:

/* USER CODE BEGIN 4 */
void HAL_TIM_PeriodElapsedCallback(TIM_HandleTypeDef *htim){
 80007e4:	b580      	push	{r7, lr}
 80007e6:	b082      	sub	sp, #8
 80007e8:	af00      	add	r7, sp, #0
 80007ea:	6078      	str	r0, [r7, #4]
	getKeyInput();
 80007ec:	f7ff fcf4 	bl	80001d8 <getKeyInput>
	timerRun();
 80007f0:	f7ff fcc8 	bl	8000184 <timerRun>
}
 80007f4:	bf00      	nop
 80007f6:	3708      	adds	r7, #8
 80007f8:	46bd      	mov	sp, r7
 80007fa:	bd80      	pop	{r7, pc}

080007fc <Error_Handler>:
/**
  * @brief  This function is executed in case of error occurrence.
  * @retval None
  */
void Error_Handler(void)
{
 80007fc:	b480      	push	{r7}
 80007fe:	af00      	add	r7, sp, #0
  \details Disables IRQ interrupts by setting the I-bit in the CPSR.
           Can only be executed in Privileged modes.
 */
__STATIC_FORCEINLINE void __disable_irq(void)
{
  __ASM volatile ("cpsid i" : : : "memory");
 8000800:	b672      	cpsid	i
}
 8000802:	bf00      	nop
  /* USER CODE BEGIN Error_Handler_Debug */
  /* User can add his own implementation to report the HAL error return state */
  __disable_irq();
  while (1)
 8000804:	e7fe      	b.n	8000804 <Error_Handler+0x8>
	...

08000808 <HAL_MspInit>:
/* USER CODE END 0 */
/**
  * Initializes the Global MSP.
  */
void HAL_MspInit(void)
{
 8000808:	b480      	push	{r7}
 800080a:	b085      	sub	sp, #20
 800080c:	af00      	add	r7, sp, #0
  /* USER CODE BEGIN MspInit 0 */

  /* USER CODE END MspInit 0 */

  __HAL_RCC_AFIO_CLK_ENABLE();
 800080e:	4b15      	ldr	r3, [pc, #84]	; (8000864 <HAL_MspInit+0x5c>)
 8000810:	699b      	ldr	r3, [r3, #24]
 8000812:	4a14      	ldr	r2, [pc, #80]	; (8000864 <HAL_MspInit+0x5c>)
 8000814:	f043 0301 	orr.w	r3, r3, #1
 8000818:	6193      	str	r3, [r2, #24]
 800081a:	4b12      	ldr	r3, [pc, #72]	; (8000864 <HAL_MspInit+0x5c>)
 800081c:	699b      	ldr	r3, [r3, #24]
 800081e:	f003 0301 	and.w	r3, r3, #1
 8000822:	60bb      	str	r3, [r7, #8]
 8000824:	68bb      	ldr	r3, [r7, #8]
  __HAL_RCC_PWR_CLK_ENABLE();
 8000826:	4b0f      	ldr	r3, [pc, #60]	; (8000864 <HAL_MspInit+0x5c>)
 8000828:	69db      	ldr	r3, [r3, #28]
 800082a:	4a0e      	ldr	r2, [pc, #56]	; (8000864 <HAL_MspInit+0x5c>)
 800082c:	f043 5380 	orr.w	r3, r3, #268435456	; 0x10000000
 8000830:	61d3      	str	r3, [r2, #28]
 8000832:	4b0c      	ldr	r3, [pc, #48]	; (8000864 <HAL_MspInit+0x5c>)
 8000834:	69db      	ldr	r3, [r3, #28]
 8000836:	f003 5380 	and.w	r3, r3, #268435456	; 0x10000000
 800083a:	607b      	str	r3, [r7, #4]
 800083c:	687b      	ldr	r3, [r7, #4]

  /* System interrupt init*/

  /** DISABLE: JTAG-DP Disabled and SW-DP Disabled
  */
  __HAL_AFIO_REMAP_SWJ_DISABLE();
 800083e:	4b0a      	ldr	r3, [pc, #40]	; (8000868 <HAL_MspInit+0x60>)
 8000840:	685b      	ldr	r3, [r3, #4]
 8000842:	60fb      	str	r3, [r7, #12]
 8000844:	68fb      	ldr	r3, [r7, #12]
 8000846:	f023 63e0 	bic.w	r3, r3, #117440512	; 0x7000000
 800084a:	60fb      	str	r3, [r7, #12]
 800084c:	68fb      	ldr	r3, [r7, #12]
 800084e:	f043 6380 	orr.w	r3, r3, #67108864	; 0x4000000
 8000852:	60fb      	str	r3, [r7, #12]
 8000854:	4a04      	ldr	r2, [pc, #16]	; (8000868 <HAL_MspInit+0x60>)
 8000856:	68fb      	ldr	r3, [r7, #12]
 8000858:	6053      	str	r3, [r2, #4]

  /* USER CODE BEGIN MspInit 1 */

  /* USER CODE END MspInit 1 */
}
 800085a:	bf00      	nop
 800085c:	3714      	adds	r7, #20
 800085e:	46bd      	mov	sp, r7
 8000860:	bc80      	pop	{r7}
 8000862:	4770      	bx	lr
 8000864:	40021000 	.word	0x40021000
 8000868:	40010000 	.word	0x40010000

0800086c <HAL_TIM_Base_MspInit>:
* This function configures the hardware resources used in this example
* @param htim_base: TIM_Base handle pointer
* @retval None
*/
void HAL_TIM_Base_MspInit(TIM_HandleTypeDef* htim_base)
{
 800086c:	b580      	push	{r7, lr}
 800086e:	b084      	sub	sp, #16
 8000870:	af00      	add	r7, sp, #0
 8000872:	6078      	str	r0, [r7, #4]
  if(htim_base->Instance==TIM2)
 8000874:	687b      	ldr	r3, [r7, #4]
 8000876:	681b      	ldr	r3, [r3, #0]
 8000878:	f1b3 4f80 	cmp.w	r3, #1073741824	; 0x40000000
 800087c:	d113      	bne.n	80008a6 <HAL_TIM_Base_MspInit+0x3a>
  {
  /* USER CODE BEGIN TIM2_MspInit 0 */

  /* USER CODE END TIM2_MspInit 0 */
    /* Peripheral clock enable */
    __HAL_RCC_TIM2_CLK_ENABLE();
 800087e:	4b0c      	ldr	r3, [pc, #48]	; (80008b0 <HAL_TIM_Base_MspInit+0x44>)
 8000880:	69db      	ldr	r3, [r3, #28]
 8000882:	4a0b      	ldr	r2, [pc, #44]	; (80008b0 <HAL_TIM_Base_MspInit+0x44>)
 8000884:	f043 0301 	orr.w	r3, r3, #1
 8000888:	61d3      	str	r3, [r2, #28]
 800088a:	4b09      	ldr	r3, [pc, #36]	; (80008b0 <HAL_TIM_Base_MspInit+0x44>)
 800088c:	69db      	ldr	r3, [r3, #28]
 800088e:	f003 0301 	and.w	r3, r3, #1
 8000892:	60fb      	str	r3, [r7, #12]
 8000894:	68fb      	ldr	r3, [r7, #12]
    /* TIM2 interrupt Init */
    HAL_NVIC_SetPriority(TIM2_IRQn, 0, 0);
 8000896:	2200      	movs	r2, #0
 8000898:	2100      	movs	r1, #0
 800089a:	201c      	movs	r0, #28
 800089c:	f000 f9a1 	bl	8000be2 <HAL_NVIC_SetPriority>
    HAL_NVIC_EnableIRQ(TIM2_IRQn);
 80008a0:	201c      	movs	r0, #28
 80008a2:	f000 f9ba 	bl	8000c1a <HAL_NVIC_EnableIRQ>
  /* USER CODE BEGIN TIM2_MspInit 1 */

  /* USER CODE END TIM2_MspInit 1 */
  }

}
 80008a6:	bf00      	nop
 80008a8:	3710      	adds	r7, #16
 80008aa:	46bd      	mov	sp, r7
 80008ac:	bd80      	pop	{r7, pc}
 80008ae:	bf00      	nop
 80008b0:	40021000 	.word	0x40021000

080008b4 <NMI_Handler>:
/******************************************************************************/
/**
  * @brief This function handles Non maskable interrupt.
  */
void NMI_Handler(void)
{
 80008b4:	b480      	push	{r7}
 80008b6:	af00      	add	r7, sp, #0
  /* USER CODE BEGIN NonMaskableInt_IRQn 0 */

  /* USER CODE END NonMaskableInt_IRQn 0 */
  /* USER CODE BEGIN NonMaskableInt_IRQn 1 */
  while (1)
 80008b8:	e7fe      	b.n	80008b8 <NMI_Handler+0x4>

080008ba <HardFault_Handler>:

/**
  * @brief This function handles Hard fault interrupt.
  */
void HardFault_Handler(void)
{
 80008ba:	b480      	push	{r7}
 80008bc:	af00      	add	r7, sp, #0
  /* USER CODE BEGIN HardFault_IRQn 0 */

  /* USER CODE END HardFault_IRQn 0 */
  while (1)
 80008be:	e7fe      	b.n	80008be <HardFault_Handler+0x4>

080008c0 <MemManage_Handler>:

/**
  * @brief This function handles Memory management fault.
  */
void MemManage_Handler(void)
{
 80008c0:	b480      	push	{r7}
 80008c2:	af00      	add	r7, sp, #0
  /* USER CODE BEGIN MemoryManagement_IRQn 0 */

  /* USER CODE END MemoryManagement_IRQn 0 */
  while (1)
 80008c4:	e7fe      	b.n	80008c4 <MemManage_Handler+0x4>

080008c6 <BusFault_Handler>:

/**
  * @brief This function handles Prefetch fault, memory access fault.
  */
void BusFault_Handler(void)
{
 80008c6:	b480      	push	{r7}
 80008c8:	af00      	add	r7, sp, #0
  /* USER CODE BEGIN BusFault_IRQn 0 */

  /* USER CODE END BusFault_IRQn 0 */
  while (1)
 80008ca:	e7fe      	b.n	80008ca <BusFault_Handler+0x4>

080008cc <UsageFault_Handler>:

/**
  * @brief This function handles Undefined instruction or illegal state.
  */
void UsageFault_Handler(void)
{
 80008cc:	b480      	push	{r7}
 80008ce:	af00      	add	r7, sp, #0
  /* USER CODE BEGIN UsageFault_IRQn 0 */

  /* USER CODE END UsageFault_IRQn 0 */
  while (1)
 80008d0:	e7fe      	b.n	80008d0 <UsageFault_Handler+0x4>

080008d2 <SVC_Handler>:

/**
  * @brief This function handles System service call via SWI instruction.
  */
void SVC_Handler(void)
{
 80008d2:	b480      	push	{r7}
 80008d4:	af00      	add	r7, sp, #0

  /* USER CODE END SVCall_IRQn 0 */
  /* USER CODE BEGIN SVCall_IRQn 1 */

  /* USER CODE END SVCall_IRQn 1 */
}
 80008d6:	bf00      	nop
 80008d8:	46bd      	mov	sp, r7
 80008da:	bc80      	pop	{r7}
 80008dc:	4770      	bx	lr

080008de <DebugMon_Handler>:

/**
  * @brief This function handles Debug monitor.
  */
void DebugMon_Handler(void)
{
 80008de:	b480      	push	{r7}
 80008e0:	af00      	add	r7, sp, #0

  /* USER CODE END DebugMonitor_IRQn 0 */
  /* USER CODE BEGIN DebugMonitor_IRQn 1 */

  /* USER CODE END DebugMonitor_IRQn 1 */
}
 80008e2:	bf00      	nop
 80008e4:	46bd      	mov	sp, r7
 80008e6:	bc80      	pop	{r7}
 80008e8:	4770      	bx	lr

080008ea <PendSV_Handler>:

/**
  * @brief This function handles Pendable request for system service.
  */
void PendSV_Handler(void)
{
 80008ea:	b480      	push	{r7}
 80008ec:	af00      	add	r7, sp, #0

  /* USER CODE END PendSV_IRQn 0 */
  /* USER CODE BEGIN PendSV_IRQn 1 */

  /* USER CODE END PendSV_IRQn 1 */
}
 80008ee:	bf00      	nop
 80008f0:	46bd      	mov	sp, r7
 80008f2:	bc80      	pop	{r7}
 80008f4:	4770      	bx	lr

080008f6 <SysTick_Handler>:

/**
  * @brief This function handles System tick timer.
  */
void SysTick_Handler(void)
{
 80008f6:	b580      	push	{r7, lr}
 80008f8:	af00      	add	r7, sp, #0
  /* USER CODE BEGIN SysTick_IRQn 0 */

  /* USER CODE END SysTick_IRQn 0 */
  HAL_IncTick();
 80008fa:	f000 f87f 	bl	80009fc <HAL_IncTick>
  /* USER CODE BEGIN SysTick_IRQn 1 */

  /* USER CODE END SysTick_IRQn 1 */
}
 80008fe:	bf00      	nop
 8000900:	bd80      	pop	{r7, pc}
	...

08000904 <TIM2_IRQHandler>:

/**
  * @brief This function handles TIM2 global interrupt.
  */
void TIM2_IRQHandler(void)
{
 8000904:	b580      	push	{r7, lr}
 8000906:	af00      	add	r7, sp, #0
  /* USER CODE BEGIN TIM2_IRQn 0 */

  /* USER CODE END TIM2_IRQn 0 */
  HAL_TIM_IRQHandler(&htim2);
 8000908:	4802      	ldr	r0, [pc, #8]	; (8000914 <TIM2_IRQHandler+0x10>)
 800090a:	f000 ffcf 	bl	80018ac <HAL_TIM_IRQHandler>
  /* USER CODE BEGIN TIM2_IRQn 1 */

  /* USER CODE END TIM2_IRQn 1 */
}
 800090e:	bf00      	nop
 8000910:	bd80      	pop	{r7, pc}
 8000912:	bf00      	nop
 8000914:	2000005c 	.word	0x2000005c

08000918 <SystemInit>:
  * @note   This function should be used only after reset.
  * @param  None
  * @retval None
  */
void SystemInit (void)
{
 8000918:	b480      	push	{r7}
 800091a:	af00      	add	r7, sp, #0

  /* Configure the Vector Table location -------------------------------------*/
#if defined(USER_VECT_TAB_ADDRESS)
  SCB->VTOR = VECT_TAB_BASE_ADDRESS | VECT_TAB_OFFSET; /* Vector Table Relocation in Internal SRAM. */
#endif /* USER_VECT_TAB_ADDRESS */
}
 800091c:	bf00      	nop
 800091e:	46bd      	mov	sp, r7
 8000920:	bc80      	pop	{r7}
 8000922:	4770      	bx	lr

08000924 <Reset_Handler>:
  .weak Reset_Handler
  .type Reset_Handler, %function
Reset_Handler:

/* Copy the data segment initializers from flash to SRAM */
  ldr r0, =_sdata
 8000924:	480c      	ldr	r0, [pc, #48]	; (8000958 <LoopFillZerobss+0x12>)
  ldr r1, =_edata
 8000926:	490d      	ldr	r1, [pc, #52]	; (800095c <LoopFillZerobss+0x16>)
  ldr r2, =_sidata
 8000928:	4a0d      	ldr	r2, [pc, #52]	; (8000960 <LoopFillZerobss+0x1a>)
  movs r3, #0
 800092a:	2300      	movs	r3, #0
  b LoopCopyDataInit
 800092c:	e002      	b.n	8000934 <LoopCopyDataInit>

0800092e <CopyDataInit>:

CopyDataInit:
  ldr r4, [r2, r3]
 800092e:	58d4      	ldr	r4, [r2, r3]
  str r4, [r0, r3]
 8000930:	50c4      	str	r4, [r0, r3]
  adds r3, r3, #4
 8000932:	3304      	adds	r3, #4

08000934 <LoopCopyDataInit>:

LoopCopyDataInit:
  adds r4, r0, r3
 8000934:	18c4      	adds	r4, r0, r3
  cmp r4, r1
 8000936:	428c      	cmp	r4, r1
  bcc CopyDataInit
 8000938:	d3f9      	bcc.n	800092e <CopyDataInit>
  
/* Zero fill the bss segment. */
  ldr r2, =_sbss
 800093a:	4a0a      	ldr	r2, [pc, #40]	; (8000964 <LoopFillZerobss+0x1e>)
  ldr r4, =_ebss
 800093c:	4c0a      	ldr	r4, [pc, #40]	; (8000968 <LoopFillZerobss+0x22>)
  movs r3, #0
 800093e:	2300      	movs	r3, #0
  b LoopFillZerobss
 8000940:	e001      	b.n	8000946 <LoopFillZerobss>

08000942 <FillZerobss>:

FillZerobss:
  str  r3, [r2]
 8000942:	6013      	str	r3, [r2, #0]
  adds r2, r2, #4
 8000944:	3204      	adds	r2, #4

08000946 <LoopFillZerobss>:

LoopFillZerobss:
  cmp r2, r4
 8000946:	42a2      	cmp	r2, r4
  bcc FillZerobss
 8000948:	d3fb      	bcc.n	8000942 <FillZerobss>

/* Call the clock system intitialization function.*/
    bl  SystemInit
 800094a:	f7ff ffe5 	bl	8000918 <SystemInit>
/* Call static constructors */
    bl __libc_init_array
 800094e:	f001 faf5 	bl	8001f3c <__libc_init_array>
/* Call the application's entry point.*/
  bl main
 8000952:	f7ff fe3d 	bl	80005d0 <main>
  bx lr
 8000956:	4770      	bx	lr
  ldr r0, =_sdata
 8000958:	20000000 	.word	0x20000000
  ldr r1, =_edata
 800095c:	2000002c 	.word	0x2000002c
  ldr r2, =_sidata
 8000960:	08001fd4 	.word	0x08001fd4
  ldr r2, =_sbss
 8000964:	2000002c 	.word	0x2000002c
  ldr r4, =_ebss
 8000968:	200000a8 	.word	0x200000a8

0800096c <ADC1_2_IRQHandler>:
 * @retval : None
*/
    .section .text.Default_Handler,"ax",%progbits
Default_Handler:
Infinite_Loop:
  b Infinite_Loop
 800096c:	e7fe      	b.n	800096c <ADC1_2_IRQHandler>
	...

08000970 <HAL_Init>:
  *         need to ensure that the SysTick time base is always set to 1 millisecond
  *         to have correct HAL operation.
  * @retval HAL status
  */
HAL_StatusTypeDef HAL_Init(void)
{
 8000970:	b580      	push	{r7, lr}
 8000972:	af00      	add	r7, sp, #0
    defined(STM32F102x6) || defined(STM32F102xB) || \
    defined(STM32F103x6) || defined(STM32F103xB) || defined(STM32F103xE) || defined(STM32F103xG) || \
    defined(STM32F105xC) || defined(STM32F107xC)

  /* Prefetch buffer is not available on value line devices */
  __HAL_FLASH_PREFETCH_BUFFER_ENABLE();
 8000974:	4b08      	ldr	r3, [pc, #32]	; (8000998 <HAL_Init+0x28>)
 8000976:	681b      	ldr	r3, [r3, #0]
 8000978:	4a07      	ldr	r2, [pc, #28]	; (8000998 <HAL_Init+0x28>)
 800097a:	f043 0310 	orr.w	r3, r3, #16
 800097e:	6013      	str	r3, [r2, #0]
#endif
#endif /* PREFETCH_ENABLE */

  /* Set Interrupt Group Priority */
  HAL_NVIC_SetPriorityGrouping(NVIC_PRIORITYGROUP_4);
 8000980:	2003      	movs	r0, #3
 8000982:	f000 f923 	bl	8000bcc <HAL_NVIC_SetPriorityGrouping>

  /* Use systick as time base source and configure 1ms tick (default clock after Reset is HSI) */
  HAL_InitTick(TICK_INT_PRIORITY);
 8000986:	200f      	movs	r0, #15
 8000988:	f000 f808 	bl	800099c <HAL_InitTick>

  /* Init the low level hardware */
  HAL_MspInit();
 800098c:	f7ff ff3c 	bl	8000808 <HAL_MspInit>

  /* Return function status */
  return HAL_OK;
 8000990:	2300      	movs	r3, #0
}
 8000992:	4618      	mov	r0, r3
 8000994:	bd80      	pop	{r7, pc}
 8000996:	bf00      	nop
 8000998:	40022000 	.word	0x40022000

0800099c <HAL_InitTick>:
  *       implementation  in user file.
  * @param TickPriority Tick interrupt priority.
  * @retval HAL status
  */
__weak HAL_StatusTypeDef HAL_InitTick(uint32_t TickPriority)
{
 800099c:	b580      	push	{r7, lr}
 800099e:	b082      	sub	sp, #8
 80009a0:	af00      	add	r7, sp, #0
 80009a2:	6078      	str	r0, [r7, #4]
  /* Configure the SysTick to have interrupt in 1ms time basis*/
  if (HAL_SYSTICK_Config(SystemCoreClock / (1000U / uwTickFreq)) > 0U)
 80009a4:	4b12      	ldr	r3, [pc, #72]	; (80009f0 <HAL_InitTick+0x54>)
 80009a6:	681a      	ldr	r2, [r3, #0]
 80009a8:	4b12      	ldr	r3, [pc, #72]	; (80009f4 <HAL_InitTick+0x58>)
 80009aa:	781b      	ldrb	r3, [r3, #0]
 80009ac:	4619      	mov	r1, r3
 80009ae:	f44f 737a 	mov.w	r3, #1000	; 0x3e8
 80009b2:	fbb3 f3f1 	udiv	r3, r3, r1
 80009b6:	fbb2 f3f3 	udiv	r3, r2, r3
 80009ba:	4618      	mov	r0, r3
 80009bc:	f000 f93b 	bl	8000c36 <HAL_SYSTICK_Config>
 80009c0:	4603      	mov	r3, r0
 80009c2:	2b00      	cmp	r3, #0
 80009c4:	d001      	beq.n	80009ca <HAL_InitTick+0x2e>
  {
    return HAL_ERROR;
 80009c6:	2301      	movs	r3, #1
 80009c8:	e00e      	b.n	80009e8 <HAL_InitTick+0x4c>
  }

  /* Configure the SysTick IRQ priority */
  if (TickPriority < (1UL << __NVIC_PRIO_BITS))
 80009ca:	687b      	ldr	r3, [r7, #4]
 80009cc:	2b0f      	cmp	r3, #15
 80009ce:	d80a      	bhi.n	80009e6 <HAL_InitTick+0x4a>
  {
    HAL_NVIC_SetPriority(SysTick_IRQn, TickPriority, 0U);
 80009d0:	2200      	movs	r2, #0
 80009d2:	6879      	ldr	r1, [r7, #4]
 80009d4:	f04f 30ff 	mov.w	r0, #4294967295
 80009d8:	f000 f903 	bl	8000be2 <HAL_NVIC_SetPriority>
    uwTickPrio = TickPriority;
 80009dc:	4a06      	ldr	r2, [pc, #24]	; (80009f8 <HAL_InitTick+0x5c>)
 80009de:	687b      	ldr	r3, [r7, #4]
 80009e0:	6013      	str	r3, [r2, #0]
  {
    return HAL_ERROR;
  }

  /* Return function status */
  return HAL_OK;
 80009e2:	2300      	movs	r3, #0
 80009e4:	e000      	b.n	80009e8 <HAL_InitTick+0x4c>
    return HAL_ERROR;
 80009e6:	2301      	movs	r3, #1
}
 80009e8:	4618      	mov	r0, r3
 80009ea:	3708      	adds	r7, #8
 80009ec:	46bd      	mov	sp, r7
 80009ee:	bd80      	pop	{r7, pc}
 80009f0:	20000020 	.word	0x20000020
 80009f4:	20000028 	.word	0x20000028
 80009f8:	20000024 	.word	0x20000024

080009fc <HAL_IncTick>:
  * @note This function is declared as __weak to be overwritten in case of other
  *      implementations in user file.
  * @retval None
  */
__weak void HAL_IncTick(void)
{
 80009fc:	b480      	push	{r7}
 80009fe:	af00      	add	r7, sp, #0
  uwTick += uwTickFreq;
 8000a00:	4b05      	ldr	r3, [pc, #20]	; (8000a18 <HAL_IncTick+0x1c>)
 8000a02:	781b      	ldrb	r3, [r3, #0]
 8000a04:	461a      	mov	r2, r3
 8000a06:	4b05      	ldr	r3, [pc, #20]	; (8000a1c <HAL_IncTick+0x20>)
 8000a08:	681b      	ldr	r3, [r3, #0]
 8000a0a:	4413      	add	r3, r2
 8000a0c:	4a03      	ldr	r2, [pc, #12]	; (8000a1c <HAL_IncTick+0x20>)
 8000a0e:	6013      	str	r3, [r2, #0]
}
 8000a10:	bf00      	nop
 8000a12:	46bd      	mov	sp, r7
 8000a14:	bc80      	pop	{r7}
 8000a16:	4770      	bx	lr
 8000a18:	20000028 	.word	0x20000028
 8000a1c:	200000a4 	.word	0x200000a4

08000a20 <HAL_GetTick>:
  * @note  This function is declared as __weak to be overwritten in case of other
  *       implementations in user file.
  * @retval tick value
  */
__weak uint32_t HAL_GetTick(void)
{
 8000a20:	b480      	push	{r7}
 8000a22:	af00      	add	r7, sp, #0
  return uwTick;
 8000a24:	4b02      	ldr	r3, [pc, #8]	; (8000a30 <HAL_GetTick+0x10>)
 8000a26:	681b      	ldr	r3, [r3, #0]
}
 8000a28:	4618      	mov	r0, r3
 8000a2a:	46bd      	mov	sp, r7
 8000a2c:	bc80      	pop	{r7}
 8000a2e:	4770      	bx	lr
 8000a30:	200000a4 	.word	0x200000a4

08000a34 <__NVIC_SetPriorityGrouping>:
           In case of a conflict between priority grouping and available
           priority bits (__NVIC_PRIO_BITS), the smallest possible priority group is set.
  \param [in]      PriorityGroup  Priority grouping field.
 */
__STATIC_INLINE void __NVIC_SetPriorityGrouping(uint32_t PriorityGroup)
{
 8000a34:	b480      	push	{r7}
 8000a36:	b085      	sub	sp, #20
 8000a38:	af00      	add	r7, sp, #0
 8000a3a:	6078      	str	r0, [r7, #4]
  uint32_t reg_value;
  uint32_t PriorityGroupTmp = (PriorityGroup & (uint32_t)0x07UL);             /* only values 0..7 are used          */
 8000a3c:	687b      	ldr	r3, [r7, #4]
 8000a3e:	f003 0307 	and.w	r3, r3, #7
 8000a42:	60fb      	str	r3, [r7, #12]

  reg_value  =  SCB->AIRCR;                                                   /* read old register configuration    */
 8000a44:	4b0c      	ldr	r3, [pc, #48]	; (8000a78 <__NVIC_SetPriorityGrouping+0x44>)
 8000a46:	68db      	ldr	r3, [r3, #12]
 8000a48:	60bb      	str	r3, [r7, #8]
  reg_value &= ~((uint32_t)(SCB_AIRCR_VECTKEY_Msk | SCB_AIRCR_PRIGROUP_Msk)); /* clear bits to change               */
 8000a4a:	68ba      	ldr	r2, [r7, #8]
 8000a4c:	f64f 03ff 	movw	r3, #63743	; 0xf8ff
 8000a50:	4013      	ands	r3, r2
 8000a52:	60bb      	str	r3, [r7, #8]
  reg_value  =  (reg_value                                   |
                ((uint32_t)0x5FAUL << SCB_AIRCR_VECTKEY_Pos) |
                (PriorityGroupTmp << SCB_AIRCR_PRIGROUP_Pos) );               /* Insert write key and priority group */
 8000a54:	68fb      	ldr	r3, [r7, #12]
 8000a56:	021a      	lsls	r2, r3, #8
                ((uint32_t)0x5FAUL << SCB_AIRCR_VECTKEY_Pos) |
 8000a58:	68bb      	ldr	r3, [r7, #8]
 8000a5a:	4313      	orrs	r3, r2
  reg_value  =  (reg_value                                   |
 8000a5c:	f043 63bf 	orr.w	r3, r3, #100139008	; 0x5f80000
 8000a60:	f443 3300 	orr.w	r3, r3, #131072	; 0x20000
 8000a64:	60bb      	str	r3, [r7, #8]
  SCB->AIRCR =  reg_value;
 8000a66:	4a04      	ldr	r2, [pc, #16]	; (8000a78 <__NVIC_SetPriorityGrouping+0x44>)
 8000a68:	68bb      	ldr	r3, [r7, #8]
 8000a6a:	60d3      	str	r3, [r2, #12]
}
 8000a6c:	bf00      	nop
 8000a6e:	3714      	adds	r7, #20
 8000a70:	46bd      	mov	sp, r7
 8000a72:	bc80      	pop	{r7}
 8000a74:	4770      	bx	lr
 8000a76:	bf00      	nop
 8000a78:	e000ed00 	.word	0xe000ed00

08000a7c <__NVIC_GetPriorityGrouping>:
  \brief   Get Priority Grouping
  \details Reads the priority grouping field from the NVIC Interrupt Controller.
  \return                Priority grouping field (SCB->AIRCR [10:8] PRIGROUP field).
 */
__STATIC_INLINE uint32_t __NVIC_GetPriorityGrouping(void)
{
 8000a7c:	b480      	push	{r7}
 8000a7e:	af00      	add	r7, sp, #0
  return ((uint32_t)((SCB->AIRCR & SCB_AIRCR_PRIGROUP_Msk) >> SCB_AIRCR_PRIGROUP_Pos));
 8000a80:	4b04      	ldr	r3, [pc, #16]	; (8000a94 <__NVIC_GetPriorityGrouping+0x18>)
 8000a82:	68db      	ldr	r3, [r3, #12]
 8000a84:	0a1b      	lsrs	r3, r3, #8
 8000a86:	f003 0307 	and.w	r3, r3, #7
}
 8000a8a:	4618      	mov	r0, r3
 8000a8c:	46bd      	mov	sp, r7
 8000a8e:	bc80      	pop	{r7}
 8000a90:	4770      	bx	lr
 8000a92:	bf00      	nop
 8000a94:	e000ed00 	.word	0xe000ed00

08000a98 <__NVIC_EnableIRQ>:
  \details Enables a device specific interrupt in the NVIC interrupt controller.
  \param [in]      IRQn  Device specific interrupt number.
  \note    IRQn must not be negative.
 */
__STATIC_INLINE void __NVIC_EnableIRQ(IRQn_Type IRQn)
{
 8000a98:	b480      	push	{r7}
 8000a9a:	b083      	sub	sp, #12
 8000a9c:	af00      	add	r7, sp, #0
 8000a9e:	4603      	mov	r3, r0
 8000aa0:	71fb      	strb	r3, [r7, #7]
  if ((int32_t)(IRQn) >= 0)
 8000aa2:	f997 3007 	ldrsb.w	r3, [r7, #7]
 8000aa6:	2b00      	cmp	r3, #0
 8000aa8:	db0b      	blt.n	8000ac2 <__NVIC_EnableIRQ+0x2a>
  {
    NVIC->ISER[(((uint32_t)IRQn) >> 5UL)] = (uint32_t)(1UL << (((uint32_t)IRQn) & 0x1FUL));
 8000aaa:	79fb      	ldrb	r3, [r7, #7]
 8000aac:	f003 021f 	and.w	r2, r3, #31
 8000ab0:	4906      	ldr	r1, [pc, #24]	; (8000acc <__NVIC_EnableIRQ+0x34>)
 8000ab2:	f997 3007 	ldrsb.w	r3, [r7, #7]
 8000ab6:	095b      	lsrs	r3, r3, #5
 8000ab8:	2001      	movs	r0, #1
 8000aba:	fa00 f202 	lsl.w	r2, r0, r2
 8000abe:	f841 2023 	str.w	r2, [r1, r3, lsl #2]
  }
}
 8000ac2:	bf00      	nop
 8000ac4:	370c      	adds	r7, #12
 8000ac6:	46bd      	mov	sp, r7
 8000ac8:	bc80      	pop	{r7}
 8000aca:	4770      	bx	lr
 8000acc:	e000e100 	.word	0xe000e100

08000ad0 <__NVIC_SetPriority>:
  \param [in]      IRQn  Interrupt number.
  \param [in]  priority  Priority to set.
  \note    The priority cannot be set for every processor exception.
 */
__STATIC_INLINE void __NVIC_SetPriority(IRQn_Type IRQn, uint32_t priority)
{
 8000ad0:	b480      	push	{r7}
 8000ad2:	b083      	sub	sp, #12
 8000ad4:	af00      	add	r7, sp, #0
 8000ad6:	4603      	mov	r3, r0
 8000ad8:	6039      	str	r1, [r7, #0]
 8000ada:	71fb      	strb	r3, [r7, #7]
  if ((int32_t)(IRQn) >= 0)
 8000adc:	f997 3007 	ldrsb.w	r3, [r7, #7]
 8000ae0:	2b00      	cmp	r3, #0
 8000ae2:	db0a      	blt.n	8000afa <__NVIC_SetPriority+0x2a>
  {
    NVIC->IP[((uint32_t)IRQn)]               = (uint8_t)((priority << (8U - __NVIC_PRIO_BITS)) & (uint32_t)0xFFUL);
 8000ae4:	683b      	ldr	r3, [r7, #0]
 8000ae6:	b2da      	uxtb	r2, r3
 8000ae8:	490c      	ldr	r1, [pc, #48]	; (8000b1c <__NVIC_SetPriority+0x4c>)
 8000aea:	f997 3007 	ldrsb.w	r3, [r7, #7]
 8000aee:	0112      	lsls	r2, r2, #4
 8000af0:	b2d2      	uxtb	r2, r2
 8000af2:	440b      	add	r3, r1
 8000af4:	f883 2300 	strb.w	r2, [r3, #768]	; 0x300
  }
  else
  {
    SCB->SHP[(((uint32_t)IRQn) & 0xFUL)-4UL] = (uint8_t)((priority << (8U - __NVIC_PRIO_BITS)) & (uint32_t)0xFFUL);
  }
}
 8000af8:	e00a      	b.n	8000b10 <__NVIC_SetPriority+0x40>
    SCB->SHP[(((uint32_t)IRQn) & 0xFUL)-4UL] = (uint8_t)((priority << (8U - __NVIC_PRIO_BITS)) & (uint32_t)0xFFUL);
 8000afa:	683b      	ldr	r3, [r7, #0]
 8000afc:	b2da      	uxtb	r2, r3
 8000afe:	4908      	ldr	r1, [pc, #32]	; (8000b20 <__NVIC_SetPriority+0x50>)
 8000b00:	79fb      	ldrb	r3, [r7, #7]
 8000b02:	f003 030f 	and.w	r3, r3, #15
 8000b06:	3b04      	subs	r3, #4
 8000b08:	0112      	lsls	r2, r2, #4
 8000b0a:	b2d2      	uxtb	r2, r2
 8000b0c:	440b      	add	r3, r1
 8000b0e:	761a      	strb	r2, [r3, #24]
}
 8000b10:	bf00      	nop
 8000b12:	370c      	adds	r7, #12
 8000b14:	46bd      	mov	sp, r7
 8000b16:	bc80      	pop	{r7}
 8000b18:	4770      	bx	lr
 8000b1a:	bf00      	nop
 8000b1c:	e000e100 	.word	0xe000e100
 8000b20:	e000ed00 	.word	0xe000ed00

08000b24 <NVIC_EncodePriority>:
  \param [in]   PreemptPriority  Preemptive priority value (starting from 0).
  \param [in]       SubPriority  Subpriority value (starting from 0).
  \return                        Encoded priority. Value can be used in the function \ref NVIC_SetPriority().
 */
__STATIC_INLINE uint32_t NVIC_EncodePriority (uint32_t PriorityGroup, uint32_t PreemptPriority, uint32_t SubPriority)
{
 8000b24:	b480      	push	{r7}
 8000b26:	b089      	sub	sp, #36	; 0x24
 8000b28:	af00      	add	r7, sp, #0
 8000b2a:	60f8      	str	r0, [r7, #12]
 8000b2c:	60b9      	str	r1, [r7, #8]
 8000b2e:	607a      	str	r2, [r7, #4]
  uint32_t PriorityGroupTmp = (PriorityGroup & (uint32_t)0x07UL);   /* only values 0..7 are used          */
 8000b30:	68fb      	ldr	r3, [r7, #12]
 8000b32:	f003 0307 	and.w	r3, r3, #7
 8000b36:	61fb      	str	r3, [r7, #28]
  uint32_t PreemptPriorityBits;
  uint32_t SubPriorityBits;

  PreemptPriorityBits = ((7UL - PriorityGroupTmp) > (uint32_t)(__NVIC_PRIO_BITS)) ? (uint32_t)(__NVIC_PRIO_BITS) : (uint32_t)(7UL - PriorityGroupTmp);
 8000b38:	69fb      	ldr	r3, [r7, #28]
 8000b3a:	f1c3 0307 	rsb	r3, r3, #7
 8000b3e:	2b04      	cmp	r3, #4
 8000b40:	bf28      	it	cs
 8000b42:	2304      	movcs	r3, #4
 8000b44:	61bb      	str	r3, [r7, #24]
  SubPriorityBits     = ((PriorityGroupTmp + (uint32_t)(__NVIC_PRIO_BITS)) < (uint32_t)7UL) ? (uint32_t)0UL : (uint32_t)((PriorityGroupTmp - 7UL) + (uint32_t)(__NVIC_PRIO_BITS));
 8000b46:	69fb      	ldr	r3, [r7, #28]
 8000b48:	3304      	adds	r3, #4
 8000b4a:	2b06      	cmp	r3, #6
 8000b4c:	d902      	bls.n	8000b54 <NVIC_EncodePriority+0x30>
 8000b4e:	69fb      	ldr	r3, [r7, #28]
 8000b50:	3b03      	subs	r3, #3
 8000b52:	e000      	b.n	8000b56 <NVIC_EncodePriority+0x32>
 8000b54:	2300      	movs	r3, #0
 8000b56:	617b      	str	r3, [r7, #20]

  return (
           ((PreemptPriority & (uint32_t)((1UL << (PreemptPriorityBits)) - 1UL)) << SubPriorityBits) |
 8000b58:	f04f 32ff 	mov.w	r2, #4294967295
 8000b5c:	69bb      	ldr	r3, [r7, #24]
 8000b5e:	fa02 f303 	lsl.w	r3, r2, r3
 8000b62:	43da      	mvns	r2, r3
 8000b64:	68bb      	ldr	r3, [r7, #8]
 8000b66:	401a      	ands	r2, r3
 8000b68:	697b      	ldr	r3, [r7, #20]
 8000b6a:	409a      	lsls	r2, r3
           ((SubPriority     & (uint32_t)((1UL << (SubPriorityBits    )) - 1UL)))
 8000b6c:	f04f 31ff 	mov.w	r1, #4294967295
 8000b70:	697b      	ldr	r3, [r7, #20]
 8000b72:	fa01 f303 	lsl.w	r3, r1, r3
 8000b76:	43d9      	mvns	r1, r3
 8000b78:	687b      	ldr	r3, [r7, #4]
 8000b7a:	400b      	ands	r3, r1
           ((PreemptPriority & (uint32_t)((1UL << (PreemptPriorityBits)) - 1UL)) << SubPriorityBits) |
 8000b7c:	4313      	orrs	r3, r2
         );
}
 8000b7e:	4618      	mov	r0, r3
 8000b80:	3724      	adds	r7, #36	; 0x24
 8000b82:	46bd      	mov	sp, r7
 8000b84:	bc80      	pop	{r7}
 8000b86:	4770      	bx	lr

08000b88 <SysTick_Config>:
  \note    When the variable <b>__Vendor_SysTickConfig</b> is set to 1, then the
           function <b>SysTick_Config</b> is not included. In this case, the file <b><i>device</i>.h</b>
           must contain a vendor-specific implementation of this function.
 */
__STATIC_INLINE uint32_t SysTick_Config(uint32_t ticks)
{
 8000b88:	b580      	push	{r7, lr}
 8000b8a:	b082      	sub	sp, #8
 8000b8c:	af00      	add	r7, sp, #0
 8000b8e:	6078      	str	r0, [r7, #4]
  if ((ticks - 1UL) > SysTick_LOAD_RELOAD_Msk)
 8000b90:	687b      	ldr	r3, [r7, #4]
 8000b92:	3b01      	subs	r3, #1
 8000b94:	f1b3 7f80 	cmp.w	r3, #16777216	; 0x1000000
 8000b98:	d301      	bcc.n	8000b9e <SysTick_Config+0x16>
  {
    return (1UL);                                                   /* Reload value impossible */
 8000b9a:	2301      	movs	r3, #1
 8000b9c:	e00f      	b.n	8000bbe <SysTick_Config+0x36>
  }

  SysTick->LOAD  = (uint32_t)(ticks - 1UL);                         /* set reload register */
 8000b9e:	4a0a      	ldr	r2, [pc, #40]	; (8000bc8 <SysTick_Config+0x40>)
 8000ba0:	687b      	ldr	r3, [r7, #4]
 8000ba2:	3b01      	subs	r3, #1
 8000ba4:	6053      	str	r3, [r2, #4]
  NVIC_SetPriority (SysTick_IRQn, (1UL << __NVIC_PRIO_BITS) - 1UL); /* set Priority for Systick Interrupt */
 8000ba6:	210f      	movs	r1, #15
 8000ba8:	f04f 30ff 	mov.w	r0, #4294967295
 8000bac:	f7ff ff90 	bl	8000ad0 <__NVIC_SetPriority>
  SysTick->VAL   = 0UL;                                             /* Load the SysTick Counter Value */
 8000bb0:	4b05      	ldr	r3, [pc, #20]	; (8000bc8 <SysTick_Config+0x40>)
 8000bb2:	2200      	movs	r2, #0
 8000bb4:	609a      	str	r2, [r3, #8]
  SysTick->CTRL  = SysTick_CTRL_CLKSOURCE_Msk |
 8000bb6:	4b04      	ldr	r3, [pc, #16]	; (8000bc8 <SysTick_Config+0x40>)
 8000bb8:	2207      	movs	r2, #7
 8000bba:	601a      	str	r2, [r3, #0]
                   SysTick_CTRL_TICKINT_Msk   |
                   SysTick_CTRL_ENABLE_Msk;                         /* Enable SysTick IRQ and SysTick Timer */
  return (0UL);                                                     /* Function successful */
 8000bbc:	2300      	movs	r3, #0
}
 8000bbe:	4618      	mov	r0, r3
 8000bc0:	3708      	adds	r7, #8
 8000bc2:	46bd      	mov	sp, r7
 8000bc4:	bd80      	pop	{r7, pc}
 8000bc6:	bf00      	nop
 8000bc8:	e000e010 	.word	0xe000e010

08000bcc <HAL_NVIC_SetPriorityGrouping>:
  * @note   When the NVIC_PriorityGroup_0 is selected, IRQ preemption is no more possible. 
  *         The pending IRQ priority will be managed only by the subpriority. 
  * @retval None
  */
void HAL_NVIC_SetPriorityGrouping(uint32_t PriorityGroup)
{
 8000bcc:	b580      	push	{r7, lr}
 8000bce:	b082      	sub	sp, #8
 8000bd0:	af00      	add	r7, sp, #0
 8000bd2:	6078      	str	r0, [r7, #4]
  /* Check the parameters */
  assert_param(IS_NVIC_PRIORITY_GROUP(PriorityGroup));
  
  /* Set the PRIGROUP[10:8] bits according to the PriorityGroup parameter value */
  NVIC_SetPriorityGrouping(PriorityGroup);
 8000bd4:	6878      	ldr	r0, [r7, #4]
 8000bd6:	f7ff ff2d 	bl	8000a34 <__NVIC_SetPriorityGrouping>
}
 8000bda:	bf00      	nop
 8000bdc:	3708      	adds	r7, #8
 8000bde:	46bd      	mov	sp, r7
 8000be0:	bd80      	pop	{r7, pc}

08000be2 <HAL_NVIC_SetPriority>:
  *         This parameter can be a value between 0 and 15
  *         A lower priority value indicates a higher priority.          
  * @retval None
  */
void HAL_NVIC_SetPriority(IRQn_Type IRQn, uint32_t PreemptPriority, uint32_t SubPriority)
{ 
 8000be2:	b580      	push	{r7, lr}
 8000be4:	b086      	sub	sp, #24
 8000be6:	af00      	add	r7, sp, #0
 8000be8:	4603      	mov	r3, r0
 8000bea:	60b9      	str	r1, [r7, #8]
 8000bec:	607a      	str	r2, [r7, #4]
 8000bee:	73fb      	strb	r3, [r7, #15]
  uint32_t prioritygroup = 0x00U;
 8000bf0:	2300      	movs	r3, #0
 8000bf2:	617b      	str	r3, [r7, #20]
  
  /* Check the parameters */
  assert_param(IS_NVIC_SUB_PRIORITY(SubPriority));
  assert_param(IS_NVIC_PREEMPTION_PRIORITY(PreemptPriority));
  
  prioritygroup = NVIC_GetPriorityGrouping();
 8000bf4:	f7ff ff42 	bl	8000a7c <__NVIC_GetPriorityGrouping>
 8000bf8:	6178      	str	r0, [r7, #20]
  
  NVIC_SetPriority(IRQn, NVIC_EncodePriority(prioritygroup, PreemptPriority, SubPriority));
 8000bfa:	687a      	ldr	r2, [r7, #4]
 8000bfc:	68b9      	ldr	r1, [r7, #8]
 8000bfe:	6978      	ldr	r0, [r7, #20]
 8000c00:	f7ff ff90 	bl	8000b24 <NVIC_EncodePriority>
 8000c04:	4602      	mov	r2, r0
 8000c06:	f997 300f 	ldrsb.w	r3, [r7, #15]
 8000c0a:	4611      	mov	r1, r2
 8000c0c:	4618      	mov	r0, r3
 8000c0e:	f7ff ff5f 	bl	8000ad0 <__NVIC_SetPriority>
}
 8000c12:	bf00      	nop
 8000c14:	3718      	adds	r7, #24
 8000c16:	46bd      	mov	sp, r7
 8000c18:	bd80      	pop	{r7, pc}

08000c1a <HAL_NVIC_EnableIRQ>:
  *         This parameter can be an enumerator of IRQn_Type enumeration
  *         (For the complete STM32 Devices IRQ Channels list, please refer to the appropriate CMSIS device file (stm32f10xxx.h))
  * @retval None
  */
void HAL_NVIC_EnableIRQ(IRQn_Type IRQn)
{
 8000c1a:	b580      	push	{r7, lr}
 8000c1c:	b082      	sub	sp, #8
 8000c1e:	af00      	add	r7, sp, #0
 8000c20:	4603      	mov	r3, r0
 8000c22:	71fb      	strb	r3, [r7, #7]
  /* Check the parameters */
  assert_param(IS_NVIC_DEVICE_IRQ(IRQn));

  /* Enable interrupt */
  NVIC_EnableIRQ(IRQn);
 8000c24:	f997 3007 	ldrsb.w	r3, [r7, #7]
 8000c28:	4618      	mov	r0, r3
 8000c2a:	f7ff ff35 	bl	8000a98 <__NVIC_EnableIRQ>
}
 8000c2e:	bf00      	nop
 8000c30:	3708      	adds	r7, #8
 8000c32:	46bd      	mov	sp, r7
 8000c34:	bd80      	pop	{r7, pc}

08000c36 <HAL_SYSTICK_Config>:
  * @param  TicksNumb: Specifies the ticks Number of ticks between two interrupts.
  * @retval status:  - 0  Function succeeded.
  *                  - 1  Function failed.
  */
uint32_t HAL_SYSTICK_Config(uint32_t TicksNumb)
{
 8000c36:	b580      	push	{r7, lr}
 8000c38:	b082      	sub	sp, #8
 8000c3a:	af00      	add	r7, sp, #0
 8000c3c:	6078      	str	r0, [r7, #4]
   return SysTick_Config(TicksNumb);
 8000c3e:	6878      	ldr	r0, [r7, #4]
 8000c40:	f7ff ffa2 	bl	8000b88 <SysTick_Config>
 8000c44:	4603      	mov	r3, r0
}
 8000c46:	4618      	mov	r0, r3
 8000c48:	3708      	adds	r7, #8
 8000c4a:	46bd      	mov	sp, r7
 8000c4c:	bd80      	pop	{r7, pc}
	...

08000c50 <HAL_GPIO_Init>:
  * @param  GPIO_Init: pointer to a GPIO_InitTypeDef structure that contains
  *         the configuration information for the specified GPIO peripheral.
  * @retval None
  */
void HAL_GPIO_Init(GPIO_TypeDef  *GPIOx, GPIO_InitTypeDef *GPIO_Init)
{
 8000c50:	b480      	push	{r7}
 8000c52:	b08b      	sub	sp, #44	; 0x2c
 8000c54:	af00      	add	r7, sp, #0
 8000c56:	6078      	str	r0, [r7, #4]
 8000c58:	6039      	str	r1, [r7, #0]
  uint32_t position = 0x00u;
 8000c5a:	2300      	movs	r3, #0
 8000c5c:	627b      	str	r3, [r7, #36]	; 0x24
  uint32_t ioposition;
  uint32_t iocurrent;
  uint32_t temp;
  uint32_t config = 0x00u;
 8000c5e:	2300      	movs	r3, #0
 8000c60:	623b      	str	r3, [r7, #32]
  assert_param(IS_GPIO_ALL_INSTANCE(GPIOx));
  assert_param(IS_GPIO_PIN(GPIO_Init->Pin));
  assert_param(IS_GPIO_MODE(GPIO_Init->Mode));

  /* Configure the port pins */
  while (((GPIO_Init->Pin) >> position) != 0x00u)
 8000c62:	e148      	b.n	8000ef6 <HAL_GPIO_Init+0x2a6>
  {
    /* Get the IO position */
    ioposition = (0x01uL << position);
 8000c64:	2201      	movs	r2, #1
 8000c66:	6a7b      	ldr	r3, [r7, #36]	; 0x24
 8000c68:	fa02 f303 	lsl.w	r3, r2, r3
 8000c6c:	61fb      	str	r3, [r7, #28]

    /* Get the current IO position */
    iocurrent = (uint32_t)(GPIO_Init->Pin) & ioposition;
 8000c6e:	683b      	ldr	r3, [r7, #0]
 8000c70:	681b      	ldr	r3, [r3, #0]
 8000c72:	69fa      	ldr	r2, [r7, #28]
 8000c74:	4013      	ands	r3, r2
 8000c76:	61bb      	str	r3, [r7, #24]

    if (iocurrent == ioposition)
 8000c78:	69ba      	ldr	r2, [r7, #24]
 8000c7a:	69fb      	ldr	r3, [r7, #28]
 8000c7c:	429a      	cmp	r2, r3
 8000c7e:	f040 8137 	bne.w	8000ef0 <HAL_GPIO_Init+0x2a0>
    {
      /* Check the Alternate function parameters */
      assert_param(IS_GPIO_AF_INSTANCE(GPIOx));

      /* Based on the required mode, filling config variable with MODEy[1:0] and CNFy[3:2] corresponding bits */
      switch (GPIO_Init->Mode)
 8000c82:	683b      	ldr	r3, [r7, #0]
 8000c84:	685b      	ldr	r3, [r3, #4]
 8000c86:	4aa3      	ldr	r2, [pc, #652]	; (8000f14 <HAL_GPIO_Init+0x2c4>)
 8000c88:	4293      	cmp	r3, r2
 8000c8a:	d05e      	beq.n	8000d4a <HAL_GPIO_Init+0xfa>
 8000c8c:	4aa1      	ldr	r2, [pc, #644]	; (8000f14 <HAL_GPIO_Init+0x2c4>)
 8000c8e:	4293      	cmp	r3, r2
 8000c90:	d875      	bhi.n	8000d7e <HAL_GPIO_Init+0x12e>
 8000c92:	4aa1      	ldr	r2, [pc, #644]	; (8000f18 <HAL_GPIO_Init+0x2c8>)
 8000c94:	4293      	cmp	r3, r2
 8000c96:	d058      	beq.n	8000d4a <HAL_GPIO_Init+0xfa>
 8000c98:	4a9f      	ldr	r2, [pc, #636]	; (8000f18 <HAL_GPIO_Init+0x2c8>)
 8000c9a:	4293      	cmp	r3, r2
 8000c9c:	d86f      	bhi.n	8000d7e <HAL_GPIO_Init+0x12e>
 8000c9e:	4a9f      	ldr	r2, [pc, #636]	; (8000f1c <HAL_GPIO_Init+0x2cc>)
 8000ca0:	4293      	cmp	r3, r2
 8000ca2:	d052      	beq.n	8000d4a <HAL_GPIO_Init+0xfa>
 8000ca4:	4a9d      	ldr	r2, [pc, #628]	; (8000f1c <HAL_GPIO_Init+0x2cc>)
 8000ca6:	4293      	cmp	r3, r2
 8000ca8:	d869      	bhi.n	8000d7e <HAL_GPIO_Init+0x12e>
 8000caa:	4a9d      	ldr	r2, [pc, #628]	; (8000f20 <HAL_GPIO_Init+0x2d0>)
 8000cac:	4293      	cmp	r3, r2
 8000cae:	d04c      	beq.n	8000d4a <HAL_GPIO_Init+0xfa>
 8000cb0:	4a9b      	ldr	r2, [pc, #620]	; (8000f20 <HAL_GPIO_Init+0x2d0>)
 8000cb2:	4293      	cmp	r3, r2
 8000cb4:	d863      	bhi.n	8000d7e <HAL_GPIO_Init+0x12e>
 8000cb6:	4a9b      	ldr	r2, [pc, #620]	; (8000f24 <HAL_GPIO_Init+0x2d4>)
 8000cb8:	4293      	cmp	r3, r2
 8000cba:	d046      	beq.n	8000d4a <HAL_GPIO_Init+0xfa>
 8000cbc:	4a99      	ldr	r2, [pc, #612]	; (8000f24 <HAL_GPIO_Init+0x2d4>)
 8000cbe:	4293      	cmp	r3, r2
 8000cc0:	d85d      	bhi.n	8000d7e <HAL_GPIO_Init+0x12e>
 8000cc2:	2b12      	cmp	r3, #18
 8000cc4:	d82a      	bhi.n	8000d1c <HAL_GPIO_Init+0xcc>
 8000cc6:	2b12      	cmp	r3, #18
 8000cc8:	d859      	bhi.n	8000d7e <HAL_GPIO_Init+0x12e>
 8000cca:	a201      	add	r2, pc, #4	; (adr r2, 8000cd0 <HAL_GPIO_Init+0x80>)
 8000ccc:	f852 f023 	ldr.w	pc, [r2, r3, lsl #2]
 8000cd0:	08000d4b 	.word	0x08000d4b
 8000cd4:	08000d25 	.word	0x08000d25
 8000cd8:	08000d37 	.word	0x08000d37
 8000cdc:	08000d79 	.word	0x08000d79
 8000ce0:	08000d7f 	.word	0x08000d7f
 8000ce4:	08000d7f 	.word	0x08000d7f
 8000ce8:	08000d7f 	.word	0x08000d7f
 8000cec:	08000d7f 	.word	0x08000d7f
 8000cf0:	08000d7f 	.word	0x08000d7f
 8000cf4:	08000d7f 	.word	0x08000d7f
 8000cf8:	08000d7f 	.word	0x08000d7f
 8000cfc:	08000d7f 	.word	0x08000d7f
 8000d00:	08000d7f 	.word	0x08000d7f
 8000d04:	08000d7f 	.word	0x08000d7f
 8000d08:	08000d7f 	.word	0x08000d7f
 8000d0c:	08000d7f 	.word	0x08000d7f
 8000d10:	08000d7f 	.word	0x08000d7f
 8000d14:	08000d2d 	.word	0x08000d2d
 8000d18:	08000d41 	.word	0x08000d41
 8000d1c:	4a82      	ldr	r2, [pc, #520]	; (8000f28 <HAL_GPIO_Init+0x2d8>)
 8000d1e:	4293      	cmp	r3, r2
 8000d20:	d013      	beq.n	8000d4a <HAL_GPIO_Init+0xfa>
          config = GPIO_CR_MODE_INPUT + GPIO_CR_CNF_ANALOG;
          break;

        /* Parameters are checked with assert_param */
        default:
          break;
 8000d22:	e02c      	b.n	8000d7e <HAL_GPIO_Init+0x12e>
          config = GPIO_Init->Speed + GPIO_CR_CNF_GP_OUTPUT_PP;
 8000d24:	683b      	ldr	r3, [r7, #0]
 8000d26:	68db      	ldr	r3, [r3, #12]
 8000d28:	623b      	str	r3, [r7, #32]
          break;
 8000d2a:	e029      	b.n	8000d80 <HAL_GPIO_Init+0x130>
          config = GPIO_Init->Speed + GPIO_CR_CNF_GP_OUTPUT_OD;
 8000d2c:	683b      	ldr	r3, [r7, #0]
 8000d2e:	68db      	ldr	r3, [r3, #12]
 8000d30:	3304      	adds	r3, #4
 8000d32:	623b      	str	r3, [r7, #32]
          break;
 8000d34:	e024      	b.n	8000d80 <HAL_GPIO_Init+0x130>
          config = GPIO_Init->Speed + GPIO_CR_CNF_AF_OUTPUT_PP;
 8000d36:	683b      	ldr	r3, [r7, #0]
 8000d38:	68db      	ldr	r3, [r3, #12]
 8000d3a:	3308      	adds	r3, #8
 8000d3c:	623b      	str	r3, [r7, #32]
          break;
 8000d3e:	e01f      	b.n	8000d80 <HAL_GPIO_Init+0x130>
          config = GPIO_Init->Speed + GPIO_CR_CNF_AF_OUTPUT_OD;
 8000d40:	683b      	ldr	r3, [r7, #0]
 8000d42:	68db      	ldr	r3, [r3, #12]
 8000d44:	330c      	adds	r3, #12
 8000d46:	623b      	str	r3, [r7, #32]
          break;
 8000d48:	e01a      	b.n	8000d80 <HAL_GPIO_Init+0x130>
          if (GPIO_Init->Pull == GPIO_NOPULL)
 8000d4a:	683b      	ldr	r3, [r7, #0]
 8000d4c:	689b      	ldr	r3, [r3, #8]
 8000d4e:	2b00      	cmp	r3, #0
 8000d50:	d102      	bne.n	8000d58 <HAL_GPIO_Init+0x108>
            config = GPIO_CR_MODE_INPUT + GPIO_CR_CNF_INPUT_FLOATING;
 8000d52:	2304      	movs	r3, #4
 8000d54:	623b      	str	r3, [r7, #32]
          break;
 8000d56:	e013      	b.n	8000d80 <HAL_GPIO_Init+0x130>
          else if (GPIO_Init->Pull == GPIO_PULLUP)
 8000d58:	683b      	ldr	r3, [r7, #0]
 8000d5a:	689b      	ldr	r3, [r3, #8]
 8000d5c:	2b01      	cmp	r3, #1
 8000d5e:	d105      	bne.n	8000d6c <HAL_GPIO_Init+0x11c>
            config = GPIO_CR_MODE_INPUT + GPIO_CR_CNF_INPUT_PU_PD;
 8000d60:	2308      	movs	r3, #8
 8000d62:	623b      	str	r3, [r7, #32]
            GPIOx->BSRR = ioposition;
 8000d64:	687b      	ldr	r3, [r7, #4]
 8000d66:	69fa      	ldr	r2, [r7, #28]
 8000d68:	611a      	str	r2, [r3, #16]
          break;
 8000d6a:	e009      	b.n	8000d80 <HAL_GPIO_Init+0x130>
            config = GPIO_CR_MODE_INPUT + GPIO_CR_CNF_INPUT_PU_PD;
 8000d6c:	2308      	movs	r3, #8
 8000d6e:	623b      	str	r3, [r7, #32]
            GPIOx->BRR = ioposition;
 8000d70:	687b      	ldr	r3, [r7, #4]
 8000d72:	69fa      	ldr	r2, [r7, #28]
 8000d74:	615a      	str	r2, [r3, #20]
          break;
 8000d76:	e003      	b.n	8000d80 <HAL_GPIO_Init+0x130>
          config = GPIO_CR_MODE_INPUT + GPIO_CR_CNF_ANALOG;
 8000d78:	2300      	movs	r3, #0
 8000d7a:	623b      	str	r3, [r7, #32]
          break;
 8000d7c:	e000      	b.n	8000d80 <HAL_GPIO_Init+0x130>
          break;
 8000d7e:	bf00      	nop
      }

      /* Check if the current bit belongs to first half or last half of the pin count number
       in order to address CRH or CRL register*/
      configregister = (iocurrent < GPIO_PIN_8) ? &GPIOx->CRL     : &GPIOx->CRH;
 8000d80:	69bb      	ldr	r3, [r7, #24]
 8000d82:	2bff      	cmp	r3, #255	; 0xff
 8000d84:	d801      	bhi.n	8000d8a <HAL_GPIO_Init+0x13a>
 8000d86:	687b      	ldr	r3, [r7, #4]
 8000d88:	e001      	b.n	8000d8e <HAL_GPIO_Init+0x13e>
 8000d8a:	687b      	ldr	r3, [r7, #4]
 8000d8c:	3304      	adds	r3, #4
 8000d8e:	617b      	str	r3, [r7, #20]
      registeroffset = (iocurrent < GPIO_PIN_8) ? (position << 2u) : ((position - 8u) << 2u);
 8000d90:	69bb      	ldr	r3, [r7, #24]
 8000d92:	2bff      	cmp	r3, #255	; 0xff
 8000d94:	d802      	bhi.n	8000d9c <HAL_GPIO_Init+0x14c>
 8000d96:	6a7b      	ldr	r3, [r7, #36]	; 0x24
 8000d98:	009b      	lsls	r3, r3, #2
 8000d9a:	e002      	b.n	8000da2 <HAL_GPIO_Init+0x152>
 8000d9c:	6a7b      	ldr	r3, [r7, #36]	; 0x24
 8000d9e:	3b08      	subs	r3, #8
 8000da0:	009b      	lsls	r3, r3, #2
 8000da2:	613b      	str	r3, [r7, #16]

      /* Apply the new configuration of the pin to the register */
      MODIFY_REG((*configregister), ((GPIO_CRL_MODE0 | GPIO_CRL_CNF0) << registeroffset), (config << registeroffset));
 8000da4:	697b      	ldr	r3, [r7, #20]
 8000da6:	681a      	ldr	r2, [r3, #0]
 8000da8:	210f      	movs	r1, #15
 8000daa:	693b      	ldr	r3, [r7, #16]
 8000dac:	fa01 f303 	lsl.w	r3, r1, r3
 8000db0:	43db      	mvns	r3, r3
 8000db2:	401a      	ands	r2, r3
 8000db4:	6a39      	ldr	r1, [r7, #32]
 8000db6:	693b      	ldr	r3, [r7, #16]
 8000db8:	fa01 f303 	lsl.w	r3, r1, r3
 8000dbc:	431a      	orrs	r2, r3
 8000dbe:	697b      	ldr	r3, [r7, #20]
 8000dc0:	601a      	str	r2, [r3, #0]

      /*--------------------- EXTI Mode Configuration ------------------------*/
      /* Configure the External Interrupt or event for the current IO */
      if ((GPIO_Init->Mode & EXTI_MODE) == EXTI_MODE)
 8000dc2:	683b      	ldr	r3, [r7, #0]
 8000dc4:	685b      	ldr	r3, [r3, #4]
 8000dc6:	f003 5380 	and.w	r3, r3, #268435456	; 0x10000000
 8000dca:	2b00      	cmp	r3, #0
 8000dcc:	f000 8090 	beq.w	8000ef0 <HAL_GPIO_Init+0x2a0>
      {
        /* Enable AFIO Clock */
        __HAL_RCC_AFIO_CLK_ENABLE();
 8000dd0:	4b56      	ldr	r3, [pc, #344]	; (8000f2c <HAL_GPIO_Init+0x2dc>)
 8000dd2:	699b      	ldr	r3, [r3, #24]
 8000dd4:	4a55      	ldr	r2, [pc, #340]	; (8000f2c <HAL_GPIO_Init+0x2dc>)
 8000dd6:	f043 0301 	orr.w	r3, r3, #1
 8000dda:	6193      	str	r3, [r2, #24]
 8000ddc:	4b53      	ldr	r3, [pc, #332]	; (8000f2c <HAL_GPIO_Init+0x2dc>)
 8000dde:	699b      	ldr	r3, [r3, #24]
 8000de0:	f003 0301 	and.w	r3, r3, #1
 8000de4:	60bb      	str	r3, [r7, #8]
 8000de6:	68bb      	ldr	r3, [r7, #8]
        temp = AFIO->EXTICR[position >> 2u];
 8000de8:	4a51      	ldr	r2, [pc, #324]	; (8000f30 <HAL_GPIO_Init+0x2e0>)
 8000dea:	6a7b      	ldr	r3, [r7, #36]	; 0x24
 8000dec:	089b      	lsrs	r3, r3, #2
 8000dee:	3302      	adds	r3, #2
 8000df0:	f852 3023 	ldr.w	r3, [r2, r3, lsl #2]
 8000df4:	60fb      	str	r3, [r7, #12]
        CLEAR_BIT(temp, (0x0Fu) << (4u * (position & 0x03u)));
 8000df6:	6a7b      	ldr	r3, [r7, #36]	; 0x24
 8000df8:	f003 0303 	and.w	r3, r3, #3
 8000dfc:	009b      	lsls	r3, r3, #2
 8000dfe:	220f      	movs	r2, #15
 8000e00:	fa02 f303 	lsl.w	r3, r2, r3
 8000e04:	43db      	mvns	r3, r3
 8000e06:	68fa      	ldr	r2, [r7, #12]
 8000e08:	4013      	ands	r3, r2
 8000e0a:	60fb      	str	r3, [r7, #12]
        SET_BIT(temp, (GPIO_GET_INDEX(GPIOx)) << (4u * (position & 0x03u)));
 8000e0c:	687b      	ldr	r3, [r7, #4]
 8000e0e:	4a49      	ldr	r2, [pc, #292]	; (8000f34 <HAL_GPIO_Init+0x2e4>)
 8000e10:	4293      	cmp	r3, r2
 8000e12:	d00d      	beq.n	8000e30 <HAL_GPIO_Init+0x1e0>
 8000e14:	687b      	ldr	r3, [r7, #4]
 8000e16:	4a48      	ldr	r2, [pc, #288]	; (8000f38 <HAL_GPIO_Init+0x2e8>)
 8000e18:	4293      	cmp	r3, r2
 8000e1a:	d007      	beq.n	8000e2c <HAL_GPIO_Init+0x1dc>
 8000e1c:	687b      	ldr	r3, [r7, #4]
 8000e1e:	4a47      	ldr	r2, [pc, #284]	; (8000f3c <HAL_GPIO_Init+0x2ec>)
 8000e20:	4293      	cmp	r3, r2
 8000e22:	d101      	bne.n	8000e28 <HAL_GPIO_Init+0x1d8>
 8000e24:	2302      	movs	r3, #2
 8000e26:	e004      	b.n	8000e32 <HAL_GPIO_Init+0x1e2>
 8000e28:	2303      	movs	r3, #3
 8000e2a:	e002      	b.n	8000e32 <HAL_GPIO_Init+0x1e2>
 8000e2c:	2301      	movs	r3, #1
 8000e2e:	e000      	b.n	8000e32 <HAL_GPIO_Init+0x1e2>
 8000e30:	2300      	movs	r3, #0
 8000e32:	6a7a      	ldr	r2, [r7, #36]	; 0x24
 8000e34:	f002 0203 	and.w	r2, r2, #3
 8000e38:	0092      	lsls	r2, r2, #2
 8000e3a:	4093      	lsls	r3, r2
 8000e3c:	68fa      	ldr	r2, [r7, #12]
 8000e3e:	4313      	orrs	r3, r2
 8000e40:	60fb      	str	r3, [r7, #12]
        AFIO->EXTICR[position >> 2u] = temp;
 8000e42:	493b      	ldr	r1, [pc, #236]	; (8000f30 <HAL_GPIO_Init+0x2e0>)
 8000e44:	6a7b      	ldr	r3, [r7, #36]	; 0x24
 8000e46:	089b      	lsrs	r3, r3, #2
 8000e48:	3302      	adds	r3, #2
 8000e4a:	68fa      	ldr	r2, [r7, #12]
 8000e4c:	f841 2023 	str.w	r2, [r1, r3, lsl #2]


        /* Configure the interrupt mask */
        if ((GPIO_Init->Mode & GPIO_MODE_IT) == GPIO_MODE_IT)
 8000e50:	683b      	ldr	r3, [r7, #0]
 8000e52:	685b      	ldr	r3, [r3, #4]
 8000e54:	f403 3380 	and.w	r3, r3, #65536	; 0x10000
 8000e58:	2b00      	cmp	r3, #0
 8000e5a:	d006      	beq.n	8000e6a <HAL_GPIO_Init+0x21a>
        {
          SET_BIT(EXTI->IMR, iocurrent);
 8000e5c:	4b38      	ldr	r3, [pc, #224]	; (8000f40 <HAL_GPIO_Init+0x2f0>)
 8000e5e:	681a      	ldr	r2, [r3, #0]
 8000e60:	4937      	ldr	r1, [pc, #220]	; (8000f40 <HAL_GPIO_Init+0x2f0>)
 8000e62:	69bb      	ldr	r3, [r7, #24]
 8000e64:	4313      	orrs	r3, r2
 8000e66:	600b      	str	r3, [r1, #0]
 8000e68:	e006      	b.n	8000e78 <HAL_GPIO_Init+0x228>
        }
        else
        {
          CLEAR_BIT(EXTI->IMR, iocurrent);
 8000e6a:	4b35      	ldr	r3, [pc, #212]	; (8000f40 <HAL_GPIO_Init+0x2f0>)
 8000e6c:	681a      	ldr	r2, [r3, #0]
 8000e6e:	69bb      	ldr	r3, [r7, #24]
 8000e70:	43db      	mvns	r3, r3
 8000e72:	4933      	ldr	r1, [pc, #204]	; (8000f40 <HAL_GPIO_Init+0x2f0>)
 8000e74:	4013      	ands	r3, r2
 8000e76:	600b      	str	r3, [r1, #0]
        }

        /* Configure the event mask */
        if ((GPIO_Init->Mode & GPIO_MODE_EVT) == GPIO_MODE_EVT)
 8000e78:	683b      	ldr	r3, [r7, #0]
 8000e7a:	685b      	ldr	r3, [r3, #4]
 8000e7c:	f403 3300 	and.w	r3, r3, #131072	; 0x20000
 8000e80:	2b00      	cmp	r3, #0
 8000e82:	d006      	beq.n	8000e92 <HAL_GPIO_Init+0x242>
        {
          SET_BIT(EXTI->EMR, iocurrent);
 8000e84:	4b2e      	ldr	r3, [pc, #184]	; (8000f40 <HAL_GPIO_Init+0x2f0>)
 8000e86:	685a      	ldr	r2, [r3, #4]
 8000e88:	492d      	ldr	r1, [pc, #180]	; (8000f40 <HAL_GPIO_Init+0x2f0>)
 8000e8a:	69bb      	ldr	r3, [r7, #24]
 8000e8c:	4313      	orrs	r3, r2
 8000e8e:	604b      	str	r3, [r1, #4]
 8000e90:	e006      	b.n	8000ea0 <HAL_GPIO_Init+0x250>
        }
        else
        {
          CLEAR_BIT(EXTI->EMR, iocurrent);
 8000e92:	4b2b      	ldr	r3, [pc, #172]	; (8000f40 <HAL_GPIO_Init+0x2f0>)
 8000e94:	685a      	ldr	r2, [r3, #4]
 8000e96:	69bb      	ldr	r3, [r7, #24]
 8000e98:	43db      	mvns	r3, r3
 8000e9a:	4929      	ldr	r1, [pc, #164]	; (8000f40 <HAL_GPIO_Init+0x2f0>)
 8000e9c:	4013      	ands	r3, r2
 8000e9e:	604b      	str	r3, [r1, #4]
        }

        /* Enable or disable the rising trigger */
        if ((GPIO_Init->Mode & RISING_EDGE) == RISING_EDGE)
 8000ea0:	683b      	ldr	r3, [r7, #0]
 8000ea2:	685b      	ldr	r3, [r3, #4]
 8000ea4:	f403 1380 	and.w	r3, r3, #1048576	; 0x100000
 8000ea8:	2b00      	cmp	r3, #0
 8000eaa:	d006      	beq.n	8000eba <HAL_GPIO_Init+0x26a>
        {
          SET_BIT(EXTI->RTSR, iocurrent);
 8000eac:	4b24      	ldr	r3, [pc, #144]	; (8000f40 <HAL_GPIO_Init+0x2f0>)
 8000eae:	689a      	ldr	r2, [r3, #8]
 8000eb0:	4923      	ldr	r1, [pc, #140]	; (8000f40 <HAL_GPIO_Init+0x2f0>)
 8000eb2:	69bb      	ldr	r3, [r7, #24]
 8000eb4:	4313      	orrs	r3, r2
 8000eb6:	608b      	str	r3, [r1, #8]
 8000eb8:	e006      	b.n	8000ec8 <HAL_GPIO_Init+0x278>
        }
        else
        {
          CLEAR_BIT(EXTI->RTSR, iocurrent);
 8000eba:	4b21      	ldr	r3, [pc, #132]	; (8000f40 <HAL_GPIO_Init+0x2f0>)
 8000ebc:	689a      	ldr	r2, [r3, #8]
 8000ebe:	69bb      	ldr	r3, [r7, #24]
 8000ec0:	43db      	mvns	r3, r3
 8000ec2:	491f      	ldr	r1, [pc, #124]	; (8000f40 <HAL_GPIO_Init+0x2f0>)
 8000ec4:	4013      	ands	r3, r2
 8000ec6:	608b      	str	r3, [r1, #8]
        }

        /* Enable or disable the falling trigger */
        if ((GPIO_Init->Mode & FALLING_EDGE) == FALLING_EDGE)
 8000ec8:	683b      	ldr	r3, [r7, #0]
 8000eca:	685b      	ldr	r3, [r3, #4]
 8000ecc:	f403 1300 	and.w	r3, r3, #2097152	; 0x200000
 8000ed0:	2b00      	cmp	r3, #0
 8000ed2:	d006      	beq.n	8000ee2 <HAL_GPIO_Init+0x292>
        {
          SET_BIT(EXTI->FTSR, iocurrent);
 8000ed4:	4b1a      	ldr	r3, [pc, #104]	; (8000f40 <HAL_GPIO_Init+0x2f0>)
 8000ed6:	68da      	ldr	r2, [r3, #12]
 8000ed8:	4919      	ldr	r1, [pc, #100]	; (8000f40 <HAL_GPIO_Init+0x2f0>)
 8000eda:	69bb      	ldr	r3, [r7, #24]
 8000edc:	4313      	orrs	r3, r2
 8000ede:	60cb      	str	r3, [r1, #12]
 8000ee0:	e006      	b.n	8000ef0 <HAL_GPIO_Init+0x2a0>
        }
        else
        {
          CLEAR_BIT(EXTI->FTSR, iocurrent);
 8000ee2:	4b17      	ldr	r3, [pc, #92]	; (8000f40 <HAL_GPIO_Init+0x2f0>)
 8000ee4:	68da      	ldr	r2, [r3, #12]
 8000ee6:	69bb      	ldr	r3, [r7, #24]
 8000ee8:	43db      	mvns	r3, r3
 8000eea:	4915      	ldr	r1, [pc, #84]	; (8000f40 <HAL_GPIO_Init+0x2f0>)
 8000eec:	4013      	ands	r3, r2
 8000eee:	60cb      	str	r3, [r1, #12]
        }
      }
    }

	position++;
 8000ef0:	6a7b      	ldr	r3, [r7, #36]	; 0x24
 8000ef2:	3301      	adds	r3, #1
 8000ef4:	627b      	str	r3, [r7, #36]	; 0x24
  while (((GPIO_Init->Pin) >> position) != 0x00u)
 8000ef6:	683b      	ldr	r3, [r7, #0]
 8000ef8:	681a      	ldr	r2, [r3, #0]
 8000efa:	6a7b      	ldr	r3, [r7, #36]	; 0x24
 8000efc:	fa22 f303 	lsr.w	r3, r2, r3
 8000f00:	2b00      	cmp	r3, #0
 8000f02:	f47f aeaf 	bne.w	8000c64 <HAL_GPIO_Init+0x14>
  }
}
 8000f06:	bf00      	nop
 8000f08:	bf00      	nop
 8000f0a:	372c      	adds	r7, #44	; 0x2c
 8000f0c:	46bd      	mov	sp, r7
 8000f0e:	bc80      	pop	{r7}
 8000f10:	4770      	bx	lr
 8000f12:	bf00      	nop
 8000f14:	10320000 	.word	0x10320000
 8000f18:	10310000 	.word	0x10310000
 8000f1c:	10220000 	.word	0x10220000
 8000f20:	10210000 	.word	0x10210000
 8000f24:	10120000 	.word	0x10120000
 8000f28:	10110000 	.word	0x10110000
 8000f2c:	40021000 	.word	0x40021000
 8000f30:	40010000 	.word	0x40010000
 8000f34:	40010800 	.word	0x40010800
 8000f38:	40010c00 	.word	0x40010c00
 8000f3c:	40011000 	.word	0x40011000
 8000f40:	40010400 	.word	0x40010400

08000f44 <HAL_GPIO_ReadPin>:
  * @param  GPIO_Pin: specifies the port bit to read.
  *         This parameter can be GPIO_PIN_x where x can be (0..15).
  * @retval The input port pin value.
  */
GPIO_PinState HAL_GPIO_ReadPin(GPIO_TypeDef *GPIOx, uint16_t GPIO_Pin)
{
 8000f44:	b480      	push	{r7}
 8000f46:	b085      	sub	sp, #20
 8000f48:	af00      	add	r7, sp, #0
 8000f4a:	6078      	str	r0, [r7, #4]
 8000f4c:	460b      	mov	r3, r1
 8000f4e:	807b      	strh	r3, [r7, #2]
  GPIO_PinState bitstatus;

  /* Check the parameters */
  assert_param(IS_GPIO_PIN(GPIO_Pin));

  if ((GPIOx->IDR & GPIO_Pin) != (uint32_t)GPIO_PIN_RESET)
 8000f50:	687b      	ldr	r3, [r7, #4]
 8000f52:	689a      	ldr	r2, [r3, #8]
 8000f54:	887b      	ldrh	r3, [r7, #2]
 8000f56:	4013      	ands	r3, r2
 8000f58:	2b00      	cmp	r3, #0
 8000f5a:	d002      	beq.n	8000f62 <HAL_GPIO_ReadPin+0x1e>
  {
    bitstatus = GPIO_PIN_SET;
 8000f5c:	2301      	movs	r3, #1
 8000f5e:	73fb      	strb	r3, [r7, #15]
 8000f60:	e001      	b.n	8000f66 <HAL_GPIO_ReadPin+0x22>
  }
  else
  {
    bitstatus = GPIO_PIN_RESET;
 8000f62:	2300      	movs	r3, #0
 8000f64:	73fb      	strb	r3, [r7, #15]
  }
  return bitstatus;
 8000f66:	7bfb      	ldrb	r3, [r7, #15]
}
 8000f68:	4618      	mov	r0, r3
 8000f6a:	3714      	adds	r7, #20
 8000f6c:	46bd      	mov	sp, r7
 8000f6e:	bc80      	pop	{r7}
 8000f70:	4770      	bx	lr

08000f72 <HAL_GPIO_WritePin>:
  *            @arg GPIO_PIN_RESET: to clear the port pin
  *            @arg GPIO_PIN_SET: to set the port pin
  * @retval None
  */
void HAL_GPIO_WritePin(GPIO_TypeDef *GPIOx, uint16_t GPIO_Pin, GPIO_PinState PinState)
{
 8000f72:	b480      	push	{r7}
 8000f74:	b083      	sub	sp, #12
 8000f76:	af00      	add	r7, sp, #0
 8000f78:	6078      	str	r0, [r7, #4]
 8000f7a:	460b      	mov	r3, r1
 8000f7c:	807b      	strh	r3, [r7, #2]
 8000f7e:	4613      	mov	r3, r2
 8000f80:	707b      	strb	r3, [r7, #1]
  /* Check the parameters */
  assert_param(IS_GPIO_PIN(GPIO_Pin));
  assert_param(IS_GPIO_PIN_ACTION(PinState));

  if (PinState != GPIO_PIN_RESET)
 8000f82:	787b      	ldrb	r3, [r7, #1]
 8000f84:	2b00      	cmp	r3, #0
 8000f86:	d003      	beq.n	8000f90 <HAL_GPIO_WritePin+0x1e>
  {
    GPIOx->BSRR = GPIO_Pin;
 8000f88:	887a      	ldrh	r2, [r7, #2]
 8000f8a:	687b      	ldr	r3, [r7, #4]
 8000f8c:	611a      	str	r2, [r3, #16]
  }
  else
  {
    GPIOx->BSRR = (uint32_t)GPIO_Pin << 16u;
  }
}
 8000f8e:	e003      	b.n	8000f98 <HAL_GPIO_WritePin+0x26>
    GPIOx->BSRR = (uint32_t)GPIO_Pin << 16u;
 8000f90:	887b      	ldrh	r3, [r7, #2]
 8000f92:	041a      	lsls	r2, r3, #16
 8000f94:	687b      	ldr	r3, [r7, #4]
 8000f96:	611a      	str	r2, [r3, #16]
}
 8000f98:	bf00      	nop
 8000f9a:	370c      	adds	r7, #12
 8000f9c:	46bd      	mov	sp, r7
 8000f9e:	bc80      	pop	{r7}
 8000fa0:	4770      	bx	lr
	...

08000fa4 <HAL_RCC_OscConfig>:
  *         supported by this macro. User should request a transition to HSE Off
  *         first and then HSE On or HSE Bypass.
  * @retval HAL status
  */
HAL_StatusTypeDef HAL_RCC_OscConfig(RCC_OscInitTypeDef  *RCC_OscInitStruct)
{
 8000fa4:	b580      	push	{r7, lr}
 8000fa6:	b086      	sub	sp, #24
 8000fa8:	af00      	add	r7, sp, #0
 8000faa:	6078      	str	r0, [r7, #4]
  uint32_t tickstart;
  uint32_t pll_config;

  /* Check Null pointer */
  if (RCC_OscInitStruct == NULL)
 8000fac:	687b      	ldr	r3, [r7, #4]
 8000fae:	2b00      	cmp	r3, #0
 8000fb0:	d101      	bne.n	8000fb6 <HAL_RCC_OscConfig+0x12>
  {
    return HAL_ERROR;
 8000fb2:	2301      	movs	r3, #1
 8000fb4:	e26c      	b.n	8001490 <HAL_RCC_OscConfig+0x4ec>

  /* Check the parameters */
  assert_param(IS_RCC_OSCILLATORTYPE(RCC_OscInitStruct->OscillatorType));

  /*------------------------------- HSE Configuration ------------------------*/
  if (((RCC_OscInitStruct->OscillatorType) & RCC_OSCILLATORTYPE_HSE) == RCC_OSCILLATORTYPE_HSE)
 8000fb6:	687b      	ldr	r3, [r7, #4]
 8000fb8:	681b      	ldr	r3, [r3, #0]
 8000fba:	f003 0301 	and.w	r3, r3, #1
 8000fbe:	2b00      	cmp	r3, #0
 8000fc0:	f000 8087 	beq.w	80010d2 <HAL_RCC_OscConfig+0x12e>
  {
    /* Check the parameters */
    assert_param(IS_RCC_HSE(RCC_OscInitStruct->HSEState));

    /* When the HSE is used as system clock or clock source for PLL in these cases it is not allowed to be disabled */
    if ((__HAL_RCC_GET_SYSCLK_SOURCE() == RCC_SYSCLKSOURCE_STATUS_HSE)
 8000fc4:	4b92      	ldr	r3, [pc, #584]	; (8001210 <HAL_RCC_OscConfig+0x26c>)
 8000fc6:	685b      	ldr	r3, [r3, #4]
 8000fc8:	f003 030c 	and.w	r3, r3, #12
 8000fcc:	2b04      	cmp	r3, #4
 8000fce:	d00c      	beq.n	8000fea <HAL_RCC_OscConfig+0x46>
        || ((__HAL_RCC_GET_SYSCLK_SOURCE() == RCC_SYSCLKSOURCE_STATUS_PLLCLK) && (__HAL_RCC_GET_PLL_OSCSOURCE() == RCC_PLLSOURCE_HSE)))
 8000fd0:	4b8f      	ldr	r3, [pc, #572]	; (8001210 <HAL_RCC_OscConfig+0x26c>)
 8000fd2:	685b      	ldr	r3, [r3, #4]
 8000fd4:	f003 030c 	and.w	r3, r3, #12
 8000fd8:	2b08      	cmp	r3, #8
 8000fda:	d112      	bne.n	8001002 <HAL_RCC_OscConfig+0x5e>
 8000fdc:	4b8c      	ldr	r3, [pc, #560]	; (8001210 <HAL_RCC_OscConfig+0x26c>)
 8000fde:	685b      	ldr	r3, [r3, #4]
 8000fe0:	f403 3380 	and.w	r3, r3, #65536	; 0x10000
 8000fe4:	f5b3 3f80 	cmp.w	r3, #65536	; 0x10000
 8000fe8:	d10b      	bne.n	8001002 <HAL_RCC_OscConfig+0x5e>
    {
      if ((__HAL_RCC_GET_FLAG(RCC_FLAG_HSERDY) != RESET) && (RCC_OscInitStruct->HSEState == RCC_HSE_OFF))
 8000fea:	4b89      	ldr	r3, [pc, #548]	; (8001210 <HAL_RCC_OscConfig+0x26c>)
 8000fec:	681b      	ldr	r3, [r3, #0]
 8000fee:	f403 3300 	and.w	r3, r3, #131072	; 0x20000
 8000ff2:	2b00      	cmp	r3, #0
 8000ff4:	d06c      	beq.n	80010d0 <HAL_RCC_OscConfig+0x12c>
 8000ff6:	687b      	ldr	r3, [r7, #4]
 8000ff8:	685b      	ldr	r3, [r3, #4]
 8000ffa:	2b00      	cmp	r3, #0
 8000ffc:	d168      	bne.n	80010d0 <HAL_RCC_OscConfig+0x12c>
      {
        return HAL_ERROR;
 8000ffe:	2301      	movs	r3, #1
 8001000:	e246      	b.n	8001490 <HAL_RCC_OscConfig+0x4ec>
      }
    }
    else
    {
      /* Set the new HSE configuration ---------------------------------------*/
      __HAL_RCC_HSE_CONFIG(RCC_OscInitStruct->HSEState);
 8001002:	687b      	ldr	r3, [r7, #4]
 8001004:	685b      	ldr	r3, [r3, #4]
 8001006:	f5b3 3f80 	cmp.w	r3, #65536	; 0x10000
 800100a:	d106      	bne.n	800101a <HAL_RCC_OscConfig+0x76>
 800100c:	4b80      	ldr	r3, [pc, #512]	; (8001210 <HAL_RCC_OscConfig+0x26c>)
 800100e:	681b      	ldr	r3, [r3, #0]
 8001010:	4a7f      	ldr	r2, [pc, #508]	; (8001210 <HAL_RCC_OscConfig+0x26c>)
 8001012:	f443 3380 	orr.w	r3, r3, #65536	; 0x10000
 8001016:	6013      	str	r3, [r2, #0]
 8001018:	e02e      	b.n	8001078 <HAL_RCC_OscConfig+0xd4>
 800101a:	687b      	ldr	r3, [r7, #4]
 800101c:	685b      	ldr	r3, [r3, #4]
 800101e:	2b00      	cmp	r3, #0
 8001020:	d10c      	bne.n	800103c <HAL_RCC_OscConfig+0x98>
 8001022:	4b7b      	ldr	r3, [pc, #492]	; (8001210 <HAL_RCC_OscConfig+0x26c>)
 8001024:	681b      	ldr	r3, [r3, #0]
 8001026:	4a7a      	ldr	r2, [pc, #488]	; (8001210 <HAL_RCC_OscConfig+0x26c>)
 8001028:	f423 3380 	bic.w	r3, r3, #65536	; 0x10000
 800102c:	6013      	str	r3, [r2, #0]
 800102e:	4b78      	ldr	r3, [pc, #480]	; (8001210 <HAL_RCC_OscConfig+0x26c>)
 8001030:	681b      	ldr	r3, [r3, #0]
 8001032:	4a77      	ldr	r2, [pc, #476]	; (8001210 <HAL_RCC_OscConfig+0x26c>)
 8001034:	f423 2380 	bic.w	r3, r3, #262144	; 0x40000
 8001038:	6013      	str	r3, [r2, #0]
 800103a:	e01d      	b.n	8001078 <HAL_RCC_OscConfig+0xd4>
 800103c:	687b      	ldr	r3, [r7, #4]
 800103e:	685b      	ldr	r3, [r3, #4]
 8001040:	f5b3 2fa0 	cmp.w	r3, #327680	; 0x50000
 8001044:	d10c      	bne.n	8001060 <HAL_RCC_OscConfig+0xbc>
 8001046:	4b72      	ldr	r3, [pc, #456]	; (8001210 <HAL_RCC_OscConfig+0x26c>)
 8001048:	681b      	ldr	r3, [r3, #0]
 800104a:	4a71      	ldr	r2, [pc, #452]	; (8001210 <HAL_RCC_OscConfig+0x26c>)
 800104c:	f443 2380 	orr.w	r3, r3, #262144	; 0x40000
 8001050:	6013      	str	r3, [r2, #0]
 8001052:	4b6f      	ldr	r3, [pc, #444]	; (8001210 <HAL_RCC_OscConfig+0x26c>)
 8001054:	681b      	ldr	r3, [r3, #0]
 8001056:	4a6e      	ldr	r2, [pc, #440]	; (8001210 <HAL_RCC_OscConfig+0x26c>)
 8001058:	f443 3380 	orr.w	r3, r3, #65536	; 0x10000
 800105c:	6013      	str	r3, [r2, #0]
 800105e:	e00b      	b.n	8001078 <HAL_RCC_OscConfig+0xd4>
 8001060:	4b6b      	ldr	r3, [pc, #428]	; (8001210 <HAL_RCC_OscConfig+0x26c>)
 8001062:	681b      	ldr	r3, [r3, #0]
 8001064:	4a6a      	ldr	r2, [pc, #424]	; (8001210 <HAL_RCC_OscConfig+0x26c>)
 8001066:	f423 3380 	bic.w	r3, r3, #65536	; 0x10000
 800106a:	6013      	str	r3, [r2, #0]
 800106c:	4b68      	ldr	r3, [pc, #416]	; (8001210 <HAL_RCC_OscConfig+0x26c>)
 800106e:	681b      	ldr	r3, [r3, #0]
 8001070:	4a67      	ldr	r2, [pc, #412]	; (8001210 <HAL_RCC_OscConfig+0x26c>)
 8001072:	f423 2380 	bic.w	r3, r3, #262144	; 0x40000
 8001076:	6013      	str	r3, [r2, #0]


      /* Check the HSE State */
      if (RCC_OscInitStruct->HSEState != RCC_HSE_OFF)
 8001078:	687b      	ldr	r3, [r7, #4]
 800107a:	685b      	ldr	r3, [r3, #4]
 800107c:	2b00      	cmp	r3, #0
 800107e:	d013      	beq.n	80010a8 <HAL_RCC_OscConfig+0x104>
      {
        /* Get Start Tick */
        tickstart = HAL_GetTick();
 8001080:	f7ff fcce 	bl	8000a20 <HAL_GetTick>
 8001084:	6138      	str	r0, [r7, #16]

        /* Wait till HSE is ready */
        while (__HAL_RCC_GET_FLAG(RCC_FLAG_HSERDY) == RESET)
 8001086:	e008      	b.n	800109a <HAL_RCC_OscConfig+0xf6>
        {
          if ((HAL_GetTick() - tickstart) > HSE_TIMEOUT_VALUE)
 8001088:	f7ff fcca 	bl	8000a20 <HAL_GetTick>
 800108c:	4602      	mov	r2, r0
 800108e:	693b      	ldr	r3, [r7, #16]
 8001090:	1ad3      	subs	r3, r2, r3
 8001092:	2b64      	cmp	r3, #100	; 0x64
 8001094:	d901      	bls.n	800109a <HAL_RCC_OscConfig+0xf6>
          {
            return HAL_TIMEOUT;
 8001096:	2303      	movs	r3, #3
 8001098:	e1fa      	b.n	8001490 <HAL_RCC_OscConfig+0x4ec>
        while (__HAL_RCC_GET_FLAG(RCC_FLAG_HSERDY) == RESET)
 800109a:	4b5d      	ldr	r3, [pc, #372]	; (8001210 <HAL_RCC_OscConfig+0x26c>)
 800109c:	681b      	ldr	r3, [r3, #0]
 800109e:	f403 3300 	and.w	r3, r3, #131072	; 0x20000
 80010a2:	2b00      	cmp	r3, #0
 80010a4:	d0f0      	beq.n	8001088 <HAL_RCC_OscConfig+0xe4>
 80010a6:	e014      	b.n	80010d2 <HAL_RCC_OscConfig+0x12e>
        }
      }
      else
      {
        /* Get Start Tick */
        tickstart = HAL_GetTick();
 80010a8:	f7ff fcba 	bl	8000a20 <HAL_GetTick>
 80010ac:	6138      	str	r0, [r7, #16]

        /* Wait till HSE is disabled */
        while (__HAL_RCC_GET_FLAG(RCC_FLAG_HSERDY) != RESET)
 80010ae:	e008      	b.n	80010c2 <HAL_RCC_OscConfig+0x11e>
        {
          if ((HAL_GetTick() - tickstart) > HSE_TIMEOUT_VALUE)
 80010b0:	f7ff fcb6 	bl	8000a20 <HAL_GetTick>
 80010b4:	4602      	mov	r2, r0
 80010b6:	693b      	ldr	r3, [r7, #16]
 80010b8:	1ad3      	subs	r3, r2, r3
 80010ba:	2b64      	cmp	r3, #100	; 0x64
 80010bc:	d901      	bls.n	80010c2 <HAL_RCC_OscConfig+0x11e>
          {
            return HAL_TIMEOUT;
 80010be:	2303      	movs	r3, #3
 80010c0:	e1e6      	b.n	8001490 <HAL_RCC_OscConfig+0x4ec>
        while (__HAL_RCC_GET_FLAG(RCC_FLAG_HSERDY) != RESET)
 80010c2:	4b53      	ldr	r3, [pc, #332]	; (8001210 <HAL_RCC_OscConfig+0x26c>)
 80010c4:	681b      	ldr	r3, [r3, #0]
 80010c6:	f403 3300 	and.w	r3, r3, #131072	; 0x20000
 80010ca:	2b00      	cmp	r3, #0
 80010cc:	d1f0      	bne.n	80010b0 <HAL_RCC_OscConfig+0x10c>
 80010ce:	e000      	b.n	80010d2 <HAL_RCC_OscConfig+0x12e>
      if ((__HAL_RCC_GET_FLAG(RCC_FLAG_HSERDY) != RESET) && (RCC_OscInitStruct->HSEState == RCC_HSE_OFF))
 80010d0:	bf00      	nop
        }
      }
    }
  }
  /*----------------------------- HSI Configuration --------------------------*/
  if (((RCC_OscInitStruct->OscillatorType) & RCC_OSCILLATORTYPE_HSI) == RCC_OSCILLATORTYPE_HSI)
 80010d2:	687b      	ldr	r3, [r7, #4]
 80010d4:	681b      	ldr	r3, [r3, #0]
 80010d6:	f003 0302 	and.w	r3, r3, #2
 80010da:	2b00      	cmp	r3, #0
 80010dc:	d063      	beq.n	80011a6 <HAL_RCC_OscConfig+0x202>
    /* Check the parameters */
    assert_param(IS_RCC_HSI(RCC_OscInitStruct->HSIState));
    assert_param(IS_RCC_CALIBRATION_VALUE(RCC_OscInitStruct->HSICalibrationValue));

    /* Check if HSI is used as system clock or as PLL source when PLL is selected as system clock */
    if ((__HAL_RCC_GET_SYSCLK_SOURCE() == RCC_SYSCLKSOURCE_STATUS_HSI)
 80010de:	4b4c      	ldr	r3, [pc, #304]	; (8001210 <HAL_RCC_OscConfig+0x26c>)
 80010e0:	685b      	ldr	r3, [r3, #4]
 80010e2:	f003 030c 	and.w	r3, r3, #12
 80010e6:	2b00      	cmp	r3, #0
 80010e8:	d00b      	beq.n	8001102 <HAL_RCC_OscConfig+0x15e>
        || ((__HAL_RCC_GET_SYSCLK_SOURCE() == RCC_SYSCLKSOURCE_STATUS_PLLCLK) && (__HAL_RCC_GET_PLL_OSCSOURCE() == RCC_PLLSOURCE_HSI_DIV2)))
 80010ea:	4b49      	ldr	r3, [pc, #292]	; (8001210 <HAL_RCC_OscConfig+0x26c>)
 80010ec:	685b      	ldr	r3, [r3, #4]
 80010ee:	f003 030c 	and.w	r3, r3, #12
 80010f2:	2b08      	cmp	r3, #8
 80010f4:	d11c      	bne.n	8001130 <HAL_RCC_OscConfig+0x18c>
 80010f6:	4b46      	ldr	r3, [pc, #280]	; (8001210 <HAL_RCC_OscConfig+0x26c>)
 80010f8:	685b      	ldr	r3, [r3, #4]
 80010fa:	f403 3380 	and.w	r3, r3, #65536	; 0x10000
 80010fe:	2b00      	cmp	r3, #0
 8001100:	d116      	bne.n	8001130 <HAL_RCC_OscConfig+0x18c>
    {
      /* When HSI is used as system clock it will not disabled */
      if ((__HAL_RCC_GET_FLAG(RCC_FLAG_HSIRDY) != RESET) && (RCC_OscInitStruct->HSIState != RCC_HSI_ON))
 8001102:	4b43      	ldr	r3, [pc, #268]	; (8001210 <HAL_RCC_OscConfig+0x26c>)
 8001104:	681b      	ldr	r3, [r3, #0]
 8001106:	f003 0302 	and.w	r3, r3, #2
 800110a:	2b00      	cmp	r3, #0
 800110c:	d005      	beq.n	800111a <HAL_RCC_OscConfig+0x176>
 800110e:	687b      	ldr	r3, [r7, #4]
 8001110:	691b      	ldr	r3, [r3, #16]
 8001112:	2b01      	cmp	r3, #1
 8001114:	d001      	beq.n	800111a <HAL_RCC_OscConfig+0x176>
      {
        return HAL_ERROR;
 8001116:	2301      	movs	r3, #1
 8001118:	e1ba      	b.n	8001490 <HAL_RCC_OscConfig+0x4ec>
      }
      /* Otherwise, just the calibration is allowed */
      else
      {
        /* Adjusts the Internal High Speed oscillator (HSI) calibration value.*/
        __HAL_RCC_HSI_CALIBRATIONVALUE_ADJUST(RCC_OscInitStruct->HSICalibrationValue);
 800111a:	4b3d      	ldr	r3, [pc, #244]	; (8001210 <HAL_RCC_OscConfig+0x26c>)
 800111c:	681b      	ldr	r3, [r3, #0]
 800111e:	f023 02f8 	bic.w	r2, r3, #248	; 0xf8
 8001122:	687b      	ldr	r3, [r7, #4]
 8001124:	695b      	ldr	r3, [r3, #20]
 8001126:	00db      	lsls	r3, r3, #3
 8001128:	4939      	ldr	r1, [pc, #228]	; (8001210 <HAL_RCC_OscConfig+0x26c>)
 800112a:	4313      	orrs	r3, r2
 800112c:	600b      	str	r3, [r1, #0]
      if ((__HAL_RCC_GET_FLAG(RCC_FLAG_HSIRDY) != RESET) && (RCC_OscInitStruct->HSIState != RCC_HSI_ON))
 800112e:	e03a      	b.n	80011a6 <HAL_RCC_OscConfig+0x202>
      }
    }
    else
    {
      /* Check the HSI State */
      if (RCC_OscInitStruct->HSIState != RCC_HSI_OFF)
 8001130:	687b      	ldr	r3, [r7, #4]
 8001132:	691b      	ldr	r3, [r3, #16]
 8001134:	2b00      	cmp	r3, #0
 8001136:	d020      	beq.n	800117a <HAL_RCC_OscConfig+0x1d6>
      {
        /* Enable the Internal High Speed oscillator (HSI). */
        __HAL_RCC_HSI_ENABLE();
 8001138:	4b36      	ldr	r3, [pc, #216]	; (8001214 <HAL_RCC_OscConfig+0x270>)
 800113a:	2201      	movs	r2, #1
 800113c:	601a      	str	r2, [r3, #0]

        /* Get Start Tick */
        tickstart = HAL_GetTick();
 800113e:	f7ff fc6f 	bl	8000a20 <HAL_GetTick>
 8001142:	6138      	str	r0, [r7, #16]

        /* Wait till HSI is ready */
        while (__HAL_RCC_GET_FLAG(RCC_FLAG_HSIRDY) == RESET)
 8001144:	e008      	b.n	8001158 <HAL_RCC_OscConfig+0x1b4>
        {
          if ((HAL_GetTick() - tickstart) > HSI_TIMEOUT_VALUE)
 8001146:	f7ff fc6b 	bl	8000a20 <HAL_GetTick>
 800114a:	4602      	mov	r2, r0
 800114c:	693b      	ldr	r3, [r7, #16]
 800114e:	1ad3      	subs	r3, r2, r3
 8001150:	2b02      	cmp	r3, #2
 8001152:	d901      	bls.n	8001158 <HAL_RCC_OscConfig+0x1b4>
          {
            return HAL_TIMEOUT;
 8001154:	2303      	movs	r3, #3
 8001156:	e19b      	b.n	8001490 <HAL_RCC_OscConfig+0x4ec>
        while (__HAL_RCC_GET_FLAG(RCC_FLAG_HSIRDY) == RESET)
 8001158:	4b2d      	ldr	r3, [pc, #180]	; (8001210 <HAL_RCC_OscConfig+0x26c>)
 800115a:	681b      	ldr	r3, [r3, #0]
 800115c:	f003 0302 	and.w	r3, r3, #2
 8001160:	2b00      	cmp	r3, #0
 8001162:	d0f0      	beq.n	8001146 <HAL_RCC_OscConfig+0x1a2>
          }
        }

        /* Adjusts the Internal High Speed oscillator (HSI) calibration value.*/
        __HAL_RCC_HSI_CALIBRATIONVALUE_ADJUST(RCC_OscInitStruct->HSICalibrationValue);
 8001164:	4b2a      	ldr	r3, [pc, #168]	; (8001210 <HAL_RCC_OscConfig+0x26c>)
 8001166:	681b      	ldr	r3, [r3, #0]
 8001168:	f023 02f8 	bic.w	r2, r3, #248	; 0xf8
 800116c:	687b      	ldr	r3, [r7, #4]
 800116e:	695b      	ldr	r3, [r3, #20]
 8001170:	00db      	lsls	r3, r3, #3
 8001172:	4927      	ldr	r1, [pc, #156]	; (8001210 <HAL_RCC_OscConfig+0x26c>)
 8001174:	4313      	orrs	r3, r2
 8001176:	600b      	str	r3, [r1, #0]
 8001178:	e015      	b.n	80011a6 <HAL_RCC_OscConfig+0x202>
      }
      else
      {
        /* Disable the Internal High Speed oscillator (HSI). */
        __HAL_RCC_HSI_DISABLE();
 800117a:	4b26      	ldr	r3, [pc, #152]	; (8001214 <HAL_RCC_OscConfig+0x270>)
 800117c:	2200      	movs	r2, #0
 800117e:	601a      	str	r2, [r3, #0]

        /* Get Start Tick */
        tickstart = HAL_GetTick();
 8001180:	f7ff fc4e 	bl	8000a20 <HAL_GetTick>
 8001184:	6138      	str	r0, [r7, #16]

        /* Wait till HSI is disabled */
        while (__HAL_RCC_GET_FLAG(RCC_FLAG_HSIRDY) != RESET)
 8001186:	e008      	b.n	800119a <HAL_RCC_OscConfig+0x1f6>
        {
          if ((HAL_GetTick() - tickstart) > HSI_TIMEOUT_VALUE)
 8001188:	f7ff fc4a 	bl	8000a20 <HAL_GetTick>
 800118c:	4602      	mov	r2, r0
 800118e:	693b      	ldr	r3, [r7, #16]
 8001190:	1ad3      	subs	r3, r2, r3
 8001192:	2b02      	cmp	r3, #2
 8001194:	d901      	bls.n	800119a <HAL_RCC_OscConfig+0x1f6>
          {
            return HAL_TIMEOUT;
 8001196:	2303      	movs	r3, #3
 8001198:	e17a      	b.n	8001490 <HAL_RCC_OscConfig+0x4ec>
        while (__HAL_RCC_GET_FLAG(RCC_FLAG_HSIRDY) != RESET)
 800119a:	4b1d      	ldr	r3, [pc, #116]	; (8001210 <HAL_RCC_OscConfig+0x26c>)
 800119c:	681b      	ldr	r3, [r3, #0]
 800119e:	f003 0302 	and.w	r3, r3, #2
 80011a2:	2b00      	cmp	r3, #0
 80011a4:	d1f0      	bne.n	8001188 <HAL_RCC_OscConfig+0x1e4>
        }
      }
    }
  }
  /*------------------------------ LSI Configuration -------------------------*/
  if (((RCC_OscInitStruct->OscillatorType) & RCC_OSCILLATORTYPE_LSI) == RCC_OSCILLATORTYPE_LSI)
 80011a6:	687b      	ldr	r3, [r7, #4]
 80011a8:	681b      	ldr	r3, [r3, #0]
 80011aa:	f003 0308 	and.w	r3, r3, #8
 80011ae:	2b00      	cmp	r3, #0
 80011b0:	d03a      	beq.n	8001228 <HAL_RCC_OscConfig+0x284>
  {
    /* Check the parameters */
    assert_param(IS_RCC_LSI(RCC_OscInitStruct->LSIState));

    /* Check the LSI State */
    if (RCC_OscInitStruct->LSIState != RCC_LSI_OFF)
 80011b2:	687b      	ldr	r3, [r7, #4]
 80011b4:	699b      	ldr	r3, [r3, #24]
 80011b6:	2b00      	cmp	r3, #0
 80011b8:	d019      	beq.n	80011ee <HAL_RCC_OscConfig+0x24a>
    {
      /* Enable the Internal Low Speed oscillator (LSI). */
      __HAL_RCC_LSI_ENABLE();
 80011ba:	4b17      	ldr	r3, [pc, #92]	; (8001218 <HAL_RCC_OscConfig+0x274>)
 80011bc:	2201      	movs	r2, #1
 80011be:	601a      	str	r2, [r3, #0]

      /* Get Start Tick */
      tickstart = HAL_GetTick();
 80011c0:	f7ff fc2e 	bl	8000a20 <HAL_GetTick>
 80011c4:	6138      	str	r0, [r7, #16]

      /* Wait till LSI is ready */
      while (__HAL_RCC_GET_FLAG(RCC_FLAG_LSIRDY) == RESET)
 80011c6:	e008      	b.n	80011da <HAL_RCC_OscConfig+0x236>
      {
        if ((HAL_GetTick() - tickstart) > LSI_TIMEOUT_VALUE)
 80011c8:	f7ff fc2a 	bl	8000a20 <HAL_GetTick>
 80011cc:	4602      	mov	r2, r0
 80011ce:	693b      	ldr	r3, [r7, #16]
 80011d0:	1ad3      	subs	r3, r2, r3
 80011d2:	2b02      	cmp	r3, #2
 80011d4:	d901      	bls.n	80011da <HAL_RCC_OscConfig+0x236>
        {
          return HAL_TIMEOUT;
 80011d6:	2303      	movs	r3, #3
 80011d8:	e15a      	b.n	8001490 <HAL_RCC_OscConfig+0x4ec>
      while (__HAL_RCC_GET_FLAG(RCC_FLAG_LSIRDY) == RESET)
 80011da:	4b0d      	ldr	r3, [pc, #52]	; (8001210 <HAL_RCC_OscConfig+0x26c>)
 80011dc:	6a5b      	ldr	r3, [r3, #36]	; 0x24
 80011de:	f003 0302 	and.w	r3, r3, #2
 80011e2:	2b00      	cmp	r3, #0
 80011e4:	d0f0      	beq.n	80011c8 <HAL_RCC_OscConfig+0x224>
        }
      }
      /*  To have a fully stabilized clock in the specified range, a software delay of 1ms
          should be added.*/
      RCC_Delay(1);
 80011e6:	2001      	movs	r0, #1
 80011e8:	f000 faa6 	bl	8001738 <RCC_Delay>
 80011ec:	e01c      	b.n	8001228 <HAL_RCC_OscConfig+0x284>
    }
    else
    {
      /* Disable the Internal Low Speed oscillator (LSI). */
      __HAL_RCC_LSI_DISABLE();
 80011ee:	4b0a      	ldr	r3, [pc, #40]	; (8001218 <HAL_RCC_OscConfig+0x274>)
 80011f0:	2200      	movs	r2, #0
 80011f2:	601a      	str	r2, [r3, #0]

      /* Get Start Tick */
      tickstart = HAL_GetTick();
 80011f4:	f7ff fc14 	bl	8000a20 <HAL_GetTick>
 80011f8:	6138      	str	r0, [r7, #16]

      /* Wait till LSI is disabled */
      while (__HAL_RCC_GET_FLAG(RCC_FLAG_LSIRDY) != RESET)
 80011fa:	e00f      	b.n	800121c <HAL_RCC_OscConfig+0x278>
      {
        if ((HAL_GetTick() - tickstart) > LSI_TIMEOUT_VALUE)
 80011fc:	f7ff fc10 	bl	8000a20 <HAL_GetTick>
 8001200:	4602      	mov	r2, r0
 8001202:	693b      	ldr	r3, [r7, #16]
 8001204:	1ad3      	subs	r3, r2, r3
 8001206:	2b02      	cmp	r3, #2
 8001208:	d908      	bls.n	800121c <HAL_RCC_OscConfig+0x278>
        {
          return HAL_TIMEOUT;
 800120a:	2303      	movs	r3, #3
 800120c:	e140      	b.n	8001490 <HAL_RCC_OscConfig+0x4ec>
 800120e:	bf00      	nop
 8001210:	40021000 	.word	0x40021000
 8001214:	42420000 	.word	0x42420000
 8001218:	42420480 	.word	0x42420480
      while (__HAL_RCC_GET_FLAG(RCC_FLAG_LSIRDY) != RESET)
 800121c:	4b9e      	ldr	r3, [pc, #632]	; (8001498 <HAL_RCC_OscConfig+0x4f4>)
 800121e:	6a5b      	ldr	r3, [r3, #36]	; 0x24
 8001220:	f003 0302 	and.w	r3, r3, #2
 8001224:	2b00      	cmp	r3, #0
 8001226:	d1e9      	bne.n	80011fc <HAL_RCC_OscConfig+0x258>
        }
      }
    }
  }
  /*------------------------------ LSE Configuration -------------------------*/
  if (((RCC_OscInitStruct->OscillatorType) & RCC_OSCILLATORTYPE_LSE) == RCC_OSCILLATORTYPE_LSE)
 8001228:	687b      	ldr	r3, [r7, #4]
 800122a:	681b      	ldr	r3, [r3, #0]
 800122c:	f003 0304 	and.w	r3, r3, #4
 8001230:	2b00      	cmp	r3, #0
 8001232:	f000 80a6 	beq.w	8001382 <HAL_RCC_OscConfig+0x3de>
  {
    FlagStatus       pwrclkchanged = RESET;
 8001236:	2300      	movs	r3, #0
 8001238:	75fb      	strb	r3, [r7, #23]
    /* Check the parameters */
    assert_param(IS_RCC_LSE(RCC_OscInitStruct->LSEState));

    /* Update LSE configuration in Backup Domain control register    */
    /* Requires to enable write access to Backup Domain of necessary */
    if (__HAL_RCC_PWR_IS_CLK_DISABLED())
 800123a:	4b97      	ldr	r3, [pc, #604]	; (8001498 <HAL_RCC_OscConfig+0x4f4>)
 800123c:	69db      	ldr	r3, [r3, #28]
 800123e:	f003 5380 	and.w	r3, r3, #268435456	; 0x10000000
 8001242:	2b00      	cmp	r3, #0
 8001244:	d10d      	bne.n	8001262 <HAL_RCC_OscConfig+0x2be>
    {
      __HAL_RCC_PWR_CLK_ENABLE();
 8001246:	4b94      	ldr	r3, [pc, #592]	; (8001498 <HAL_RCC_OscConfig+0x4f4>)
 8001248:	69db      	ldr	r3, [r3, #28]
 800124a:	4a93      	ldr	r2, [pc, #588]	; (8001498 <HAL_RCC_OscConfig+0x4f4>)
 800124c:	f043 5380 	orr.w	r3, r3, #268435456	; 0x10000000
 8001250:	61d3      	str	r3, [r2, #28]
 8001252:	4b91      	ldr	r3, [pc, #580]	; (8001498 <HAL_RCC_OscConfig+0x4f4>)
 8001254:	69db      	ldr	r3, [r3, #28]
 8001256:	f003 5380 	and.w	r3, r3, #268435456	; 0x10000000
 800125a:	60bb      	str	r3, [r7, #8]
 800125c:	68bb      	ldr	r3, [r7, #8]
      pwrclkchanged = SET;
 800125e:	2301      	movs	r3, #1
 8001260:	75fb      	strb	r3, [r7, #23]
    }

    if (HAL_IS_BIT_CLR(PWR->CR, PWR_CR_DBP))
 8001262:	4b8e      	ldr	r3, [pc, #568]	; (800149c <HAL_RCC_OscConfig+0x4f8>)
 8001264:	681b      	ldr	r3, [r3, #0]
 8001266:	f403 7380 	and.w	r3, r3, #256	; 0x100
 800126a:	2b00      	cmp	r3, #0
 800126c:	d118      	bne.n	80012a0 <HAL_RCC_OscConfig+0x2fc>
    {
      /* Enable write access to Backup domain */
      SET_BIT(PWR->CR, PWR_CR_DBP);
 800126e:	4b8b      	ldr	r3, [pc, #556]	; (800149c <HAL_RCC_OscConfig+0x4f8>)
 8001270:	681b      	ldr	r3, [r3, #0]
 8001272:	4a8a      	ldr	r2, [pc, #552]	; (800149c <HAL_RCC_OscConfig+0x4f8>)
 8001274:	f443 7380 	orr.w	r3, r3, #256	; 0x100
 8001278:	6013      	str	r3, [r2, #0]

      /* Wait for Backup domain Write protection disable */
      tickstart = HAL_GetTick();
 800127a:	f7ff fbd1 	bl	8000a20 <HAL_GetTick>
 800127e:	6138      	str	r0, [r7, #16]

      while (HAL_IS_BIT_CLR(PWR->CR, PWR_CR_DBP))
 8001280:	e008      	b.n	8001294 <HAL_RCC_OscConfig+0x2f0>
      {
        if ((HAL_GetTick() - tickstart) > RCC_DBP_TIMEOUT_VALUE)
 8001282:	f7ff fbcd 	bl	8000a20 <HAL_GetTick>
 8001286:	4602      	mov	r2, r0
 8001288:	693b      	ldr	r3, [r7, #16]
 800128a:	1ad3      	subs	r3, r2, r3
 800128c:	2b64      	cmp	r3, #100	; 0x64
 800128e:	d901      	bls.n	8001294 <HAL_RCC_OscConfig+0x2f0>
        {
          return HAL_TIMEOUT;
 8001290:	2303      	movs	r3, #3
 8001292:	e0fd      	b.n	8001490 <HAL_RCC_OscConfig+0x4ec>
      while (HAL_IS_BIT_CLR(PWR->CR, PWR_CR_DBP))
 8001294:	4b81      	ldr	r3, [pc, #516]	; (800149c <HAL_RCC_OscConfig+0x4f8>)
 8001296:	681b      	ldr	r3, [r3, #0]
 8001298:	f403 7380 	and.w	r3, r3, #256	; 0x100
 800129c:	2b00      	cmp	r3, #0
 800129e:	d0f0      	beq.n	8001282 <HAL_RCC_OscConfig+0x2de>
        }
      }
    }

    /* Set the new LSE configuration -----------------------------------------*/
    __HAL_RCC_LSE_CONFIG(RCC_OscInitStruct->LSEState);
 80012a0:	687b      	ldr	r3, [r7, #4]
 80012a2:	68db      	ldr	r3, [r3, #12]
 80012a4:	2b01      	cmp	r3, #1
 80012a6:	d106      	bne.n	80012b6 <HAL_RCC_OscConfig+0x312>
 80012a8:	4b7b      	ldr	r3, [pc, #492]	; (8001498 <HAL_RCC_OscConfig+0x4f4>)
 80012aa:	6a1b      	ldr	r3, [r3, #32]
 80012ac:	4a7a      	ldr	r2, [pc, #488]	; (8001498 <HAL_RCC_OscConfig+0x4f4>)
 80012ae:	f043 0301 	orr.w	r3, r3, #1
 80012b2:	6213      	str	r3, [r2, #32]
 80012b4:	e02d      	b.n	8001312 <HAL_RCC_OscConfig+0x36e>
 80012b6:	687b      	ldr	r3, [r7, #4]
 80012b8:	68db      	ldr	r3, [r3, #12]
 80012ba:	2b00      	cmp	r3, #0
 80012bc:	d10c      	bne.n	80012d8 <HAL_RCC_OscConfig+0x334>
 80012be:	4b76      	ldr	r3, [pc, #472]	; (8001498 <HAL_RCC_OscConfig+0x4f4>)
 80012c0:	6a1b      	ldr	r3, [r3, #32]
 80012c2:	4a75      	ldr	r2, [pc, #468]	; (8001498 <HAL_RCC_OscConfig+0x4f4>)
 80012c4:	f023 0301 	bic.w	r3, r3, #1
 80012c8:	6213      	str	r3, [r2, #32]
 80012ca:	4b73      	ldr	r3, [pc, #460]	; (8001498 <HAL_RCC_OscConfig+0x4f4>)
 80012cc:	6a1b      	ldr	r3, [r3, #32]
 80012ce:	4a72      	ldr	r2, [pc, #456]	; (8001498 <HAL_RCC_OscConfig+0x4f4>)
 80012d0:	f023 0304 	bic.w	r3, r3, #4
 80012d4:	6213      	str	r3, [r2, #32]
 80012d6:	e01c      	b.n	8001312 <HAL_RCC_OscConfig+0x36e>
 80012d8:	687b      	ldr	r3, [r7, #4]
 80012da:	68db      	ldr	r3, [r3, #12]
 80012dc:	2b05      	cmp	r3, #5
 80012de:	d10c      	bne.n	80012fa <HAL_RCC_OscConfig+0x356>
 80012e0:	4b6d      	ldr	r3, [pc, #436]	; (8001498 <HAL_RCC_OscConfig+0x4f4>)
 80012e2:	6a1b      	ldr	r3, [r3, #32]
 80012e4:	4a6c      	ldr	r2, [pc, #432]	; (8001498 <HAL_RCC_OscConfig+0x4f4>)
 80012e6:	f043 0304 	orr.w	r3, r3, #4
 80012ea:	6213      	str	r3, [r2, #32]
 80012ec:	4b6a      	ldr	r3, [pc, #424]	; (8001498 <HAL_RCC_OscConfig+0x4f4>)
 80012ee:	6a1b      	ldr	r3, [r3, #32]
 80012f0:	4a69      	ldr	r2, [pc, #420]	; (8001498 <HAL_RCC_OscConfig+0x4f4>)
 80012f2:	f043 0301 	orr.w	r3, r3, #1
 80012f6:	6213      	str	r3, [r2, #32]
 80012f8:	e00b      	b.n	8001312 <HAL_RCC_OscConfig+0x36e>
 80012fa:	4b67      	ldr	r3, [pc, #412]	; (8001498 <HAL_RCC_OscConfig+0x4f4>)
 80012fc:	6a1b      	ldr	r3, [r3, #32]
 80012fe:	4a66      	ldr	r2, [pc, #408]	; (8001498 <HAL_RCC_OscConfig+0x4f4>)
 8001300:	f023 0301 	bic.w	r3, r3, #1
 8001304:	6213      	str	r3, [r2, #32]
 8001306:	4b64      	ldr	r3, [pc, #400]	; (8001498 <HAL_RCC_OscConfig+0x4f4>)
 8001308:	6a1b      	ldr	r3, [r3, #32]
 800130a:	4a63      	ldr	r2, [pc, #396]	; (8001498 <HAL_RCC_OscConfig+0x4f4>)
 800130c:	f023 0304 	bic.w	r3, r3, #4
 8001310:	6213      	str	r3, [r2, #32]
    /* Check the LSE State */
    if (RCC_OscInitStruct->LSEState != RCC_LSE_OFF)
 8001312:	687b      	ldr	r3, [r7, #4]
 8001314:	68db      	ldr	r3, [r3, #12]
 8001316:	2b00      	cmp	r3, #0
 8001318:	d015      	beq.n	8001346 <HAL_RCC_OscConfig+0x3a2>
    {
      /* Get Start Tick */
      tickstart = HAL_GetTick();
 800131a:	f7ff fb81 	bl	8000a20 <HAL_GetTick>
 800131e:	6138      	str	r0, [r7, #16]

      /* Wait till LSE is ready */
      while (__HAL_RCC_GET_FLAG(RCC_FLAG_LSERDY) == RESET)
 8001320:	e00a      	b.n	8001338 <HAL_RCC_OscConfig+0x394>
      {
        if ((HAL_GetTick() - tickstart) > RCC_LSE_TIMEOUT_VALUE)
 8001322:	f7ff fb7d 	bl	8000a20 <HAL_GetTick>
 8001326:	4602      	mov	r2, r0
 8001328:	693b      	ldr	r3, [r7, #16]
 800132a:	1ad3      	subs	r3, r2, r3
 800132c:	f241 3288 	movw	r2, #5000	; 0x1388
 8001330:	4293      	cmp	r3, r2
 8001332:	d901      	bls.n	8001338 <HAL_RCC_OscConfig+0x394>
        {
          return HAL_TIMEOUT;
 8001334:	2303      	movs	r3, #3
 8001336:	e0ab      	b.n	8001490 <HAL_RCC_OscConfig+0x4ec>
      while (__HAL_RCC_GET_FLAG(RCC_FLAG_LSERDY) == RESET)
 8001338:	4b57      	ldr	r3, [pc, #348]	; (8001498 <HAL_RCC_OscConfig+0x4f4>)
 800133a:	6a1b      	ldr	r3, [r3, #32]
 800133c:	f003 0302 	and.w	r3, r3, #2
 8001340:	2b00      	cmp	r3, #0
 8001342:	d0ee      	beq.n	8001322 <HAL_RCC_OscConfig+0x37e>
 8001344:	e014      	b.n	8001370 <HAL_RCC_OscConfig+0x3cc>
      }
    }
    else
    {
      /* Get Start Tick */
      tickstart = HAL_GetTick();
 8001346:	f7ff fb6b 	bl	8000a20 <HAL_GetTick>
 800134a:	6138      	str	r0, [r7, #16]

      /* Wait till LSE is disabled */
      while (__HAL_RCC_GET_FLAG(RCC_FLAG_LSERDY) != RESET)
 800134c:	e00a      	b.n	8001364 <HAL_RCC_OscConfig+0x3c0>
      {
        if ((HAL_GetTick() - tickstart) > RCC_LSE_TIMEOUT_VALUE)
 800134e:	f7ff fb67 	bl	8000a20 <HAL_GetTick>
 8001352:	4602      	mov	r2, r0
 8001354:	693b      	ldr	r3, [r7, #16]
 8001356:	1ad3      	subs	r3, r2, r3
 8001358:	f241 3288 	movw	r2, #5000	; 0x1388
 800135c:	4293      	cmp	r3, r2
 800135e:	d901      	bls.n	8001364 <HAL_RCC_OscConfig+0x3c0>
        {
          return HAL_TIMEOUT;
 8001360:	2303      	movs	r3, #3
 8001362:	e095      	b.n	8001490 <HAL_RCC_OscConfig+0x4ec>
      while (__HAL_RCC_GET_FLAG(RCC_FLAG_LSERDY) != RESET)
 8001364:	4b4c      	ldr	r3, [pc, #304]	; (8001498 <HAL_RCC_OscConfig+0x4f4>)
 8001366:	6a1b      	ldr	r3, [r3, #32]
 8001368:	f003 0302 	and.w	r3, r3, #2
 800136c:	2b00      	cmp	r3, #0
 800136e:	d1ee      	bne.n	800134e <HAL_RCC_OscConfig+0x3aa>
        }
      }
    }

    /* Require to disable power clock if necessary */
    if (pwrclkchanged == SET)
 8001370:	7dfb      	ldrb	r3, [r7, #23]
 8001372:	2b01      	cmp	r3, #1
 8001374:	d105      	bne.n	8001382 <HAL_RCC_OscConfig+0x3de>
    {
      __HAL_RCC_PWR_CLK_DISABLE();
 8001376:	4b48      	ldr	r3, [pc, #288]	; (8001498 <HAL_RCC_OscConfig+0x4f4>)
 8001378:	69db      	ldr	r3, [r3, #28]
 800137a:	4a47      	ldr	r2, [pc, #284]	; (8001498 <HAL_RCC_OscConfig+0x4f4>)
 800137c:	f023 5380 	bic.w	r3, r3, #268435456	; 0x10000000
 8001380:	61d3      	str	r3, [r2, #28]

#endif /* RCC_CR_PLL2ON */
  /*-------------------------------- PLL Configuration -----------------------*/
  /* Check the parameters */
  assert_param(IS_RCC_PLL(RCC_OscInitStruct->PLL.PLLState));
  if ((RCC_OscInitStruct->PLL.PLLState) != RCC_PLL_NONE)
 8001382:	687b      	ldr	r3, [r7, #4]
 8001384:	69db      	ldr	r3, [r3, #28]
 8001386:	2b00      	cmp	r3, #0
 8001388:	f000 8081 	beq.w	800148e <HAL_RCC_OscConfig+0x4ea>
  {
    /* Check if the PLL is used as system clock or not */
    if (__HAL_RCC_GET_SYSCLK_SOURCE() != RCC_SYSCLKSOURCE_STATUS_PLLCLK)
 800138c:	4b42      	ldr	r3, [pc, #264]	; (8001498 <HAL_RCC_OscConfig+0x4f4>)
 800138e:	685b      	ldr	r3, [r3, #4]
 8001390:	f003 030c 	and.w	r3, r3, #12
 8001394:	2b08      	cmp	r3, #8
 8001396:	d061      	beq.n	800145c <HAL_RCC_OscConfig+0x4b8>
    {
      if ((RCC_OscInitStruct->PLL.PLLState) == RCC_PLL_ON)
 8001398:	687b      	ldr	r3, [r7, #4]
 800139a:	69db      	ldr	r3, [r3, #28]
 800139c:	2b02      	cmp	r3, #2
 800139e:	d146      	bne.n	800142e <HAL_RCC_OscConfig+0x48a>
        /* Check the parameters */
        assert_param(IS_RCC_PLLSOURCE(RCC_OscInitStruct->PLL.PLLSource));
        assert_param(IS_RCC_PLL_MUL(RCC_OscInitStruct->PLL.PLLMUL));

        /* Disable the main PLL. */
        __HAL_RCC_PLL_DISABLE();
 80013a0:	4b3f      	ldr	r3, [pc, #252]	; (80014a0 <HAL_RCC_OscConfig+0x4fc>)
 80013a2:	2200      	movs	r2, #0
 80013a4:	601a      	str	r2, [r3, #0]

        /* Get Start Tick */
        tickstart = HAL_GetTick();
 80013a6:	f7ff fb3b 	bl	8000a20 <HAL_GetTick>
 80013aa:	6138      	str	r0, [r7, #16]

        /* Wait till PLL is disabled */
        while (__HAL_RCC_GET_FLAG(RCC_FLAG_PLLRDY)  != RESET)
 80013ac:	e008      	b.n	80013c0 <HAL_RCC_OscConfig+0x41c>
        {
          if ((HAL_GetTick() - tickstart) > PLL_TIMEOUT_VALUE)
 80013ae:	f7ff fb37 	bl	8000a20 <HAL_GetTick>
 80013b2:	4602      	mov	r2, r0
 80013b4:	693b      	ldr	r3, [r7, #16]
 80013b6:	1ad3      	subs	r3, r2, r3
 80013b8:	2b02      	cmp	r3, #2
 80013ba:	d901      	bls.n	80013c0 <HAL_RCC_OscConfig+0x41c>
          {
            return HAL_TIMEOUT;
 80013bc:	2303      	movs	r3, #3
 80013be:	e067      	b.n	8001490 <HAL_RCC_OscConfig+0x4ec>
        while (__HAL_RCC_GET_FLAG(RCC_FLAG_PLLRDY)  != RESET)
 80013c0:	4b35      	ldr	r3, [pc, #212]	; (8001498 <HAL_RCC_OscConfig+0x4f4>)
 80013c2:	681b      	ldr	r3, [r3, #0]
 80013c4:	f003 7300 	and.w	r3, r3, #33554432	; 0x2000000
 80013c8:	2b00      	cmp	r3, #0
 80013ca:	d1f0      	bne.n	80013ae <HAL_RCC_OscConfig+0x40a>
          }
        }

        /* Configure the HSE prediv factor --------------------------------*/
        /* It can be written only when the PLL is disabled. Not used in PLL source is different than HSE */
        if (RCC_OscInitStruct->PLL.PLLSource == RCC_PLLSOURCE_HSE)
 80013cc:	687b      	ldr	r3, [r7, #4]
 80013ce:	6a1b      	ldr	r3, [r3, #32]
 80013d0:	f5b3 3f80 	cmp.w	r3, #65536	; 0x10000
 80013d4:	d108      	bne.n	80013e8 <HAL_RCC_OscConfig+0x444>
          /* Set PREDIV1 source */
          SET_BIT(RCC->CFGR2, RCC_OscInitStruct->Prediv1Source);
#endif /* RCC_CFGR2_PREDIV1SRC */

          /* Set PREDIV1 Value */
          __HAL_RCC_HSE_PREDIV_CONFIG(RCC_OscInitStruct->HSEPredivValue);
 80013d6:	4b30      	ldr	r3, [pc, #192]	; (8001498 <HAL_RCC_OscConfig+0x4f4>)
 80013d8:	685b      	ldr	r3, [r3, #4]
 80013da:	f423 3200 	bic.w	r2, r3, #131072	; 0x20000
 80013de:	687b      	ldr	r3, [r7, #4]
 80013e0:	689b      	ldr	r3, [r3, #8]
 80013e2:	492d      	ldr	r1, [pc, #180]	; (8001498 <HAL_RCC_OscConfig+0x4f4>)
 80013e4:	4313      	orrs	r3, r2
 80013e6:	604b      	str	r3, [r1, #4]
        }

        /* Configure the main PLL clock source and multiplication factors. */
        __HAL_RCC_PLL_CONFIG(RCC_OscInitStruct->PLL.PLLSource,
 80013e8:	4b2b      	ldr	r3, [pc, #172]	; (8001498 <HAL_RCC_OscConfig+0x4f4>)
 80013ea:	685b      	ldr	r3, [r3, #4]
 80013ec:	f423 1274 	bic.w	r2, r3, #3997696	; 0x3d0000
 80013f0:	687b      	ldr	r3, [r7, #4]
 80013f2:	6a19      	ldr	r1, [r3, #32]
 80013f4:	687b      	ldr	r3, [r7, #4]
 80013f6:	6a5b      	ldr	r3, [r3, #36]	; 0x24
 80013f8:	430b      	orrs	r3, r1
 80013fa:	4927      	ldr	r1, [pc, #156]	; (8001498 <HAL_RCC_OscConfig+0x4f4>)
 80013fc:	4313      	orrs	r3, r2
 80013fe:	604b      	str	r3, [r1, #4]
                             RCC_OscInitStruct->PLL.PLLMUL);
        /* Enable the main PLL. */
        __HAL_RCC_PLL_ENABLE();
 8001400:	4b27      	ldr	r3, [pc, #156]	; (80014a0 <HAL_RCC_OscConfig+0x4fc>)
 8001402:	2201      	movs	r2, #1
 8001404:	601a      	str	r2, [r3, #0]

        /* Get Start Tick */
        tickstart = HAL_GetTick();
 8001406:	f7ff fb0b 	bl	8000a20 <HAL_GetTick>
 800140a:	6138      	str	r0, [r7, #16]

        /* Wait till PLL is ready */
        while (__HAL_RCC_GET_FLAG(RCC_FLAG_PLLRDY)  == RESET)
 800140c:	e008      	b.n	8001420 <HAL_RCC_OscConfig+0x47c>
        {
          if ((HAL_GetTick() - tickstart) > PLL_TIMEOUT_VALUE)
 800140e:	f7ff fb07 	bl	8000a20 <HAL_GetTick>
 8001412:	4602      	mov	r2, r0
 8001414:	693b      	ldr	r3, [r7, #16]
 8001416:	1ad3      	subs	r3, r2, r3
 8001418:	2b02      	cmp	r3, #2
 800141a:	d901      	bls.n	8001420 <HAL_RCC_OscConfig+0x47c>
          {
            return HAL_TIMEOUT;
 800141c:	2303      	movs	r3, #3
 800141e:	e037      	b.n	8001490 <HAL_RCC_OscConfig+0x4ec>
        while (__HAL_RCC_GET_FLAG(RCC_FLAG_PLLRDY)  == RESET)
 8001420:	4b1d      	ldr	r3, [pc, #116]	; (8001498 <HAL_RCC_OscConfig+0x4f4>)
 8001422:	681b      	ldr	r3, [r3, #0]
 8001424:	f003 7300 	and.w	r3, r3, #33554432	; 0x2000000
 8001428:	2b00      	cmp	r3, #0
 800142a:	d0f0      	beq.n	800140e <HAL_RCC_OscConfig+0x46a>
 800142c:	e02f      	b.n	800148e <HAL_RCC_OscConfig+0x4ea>
        }
      }
      else
      {
        /* Disable the main PLL. */
        __HAL_RCC_PLL_DISABLE();
 800142e:	4b1c      	ldr	r3, [pc, #112]	; (80014a0 <HAL_RCC_OscConfig+0x4fc>)
 8001430:	2200      	movs	r2, #0
 8001432:	601a      	str	r2, [r3, #0]

        /* Get Start Tick */
        tickstart = HAL_GetTick();
 8001434:	f7ff faf4 	bl	8000a20 <HAL_GetTick>
 8001438:	6138      	str	r0, [r7, #16]

        /* Wait till PLL is disabled */
        while (__HAL_RCC_GET_FLAG(RCC_FLAG_PLLRDY)  != RESET)
 800143a:	e008      	b.n	800144e <HAL_RCC_OscConfig+0x4aa>
        {
          if ((HAL_GetTick() - tickstart) > PLL_TIMEOUT_VALUE)
 800143c:	f7ff faf0 	bl	8000a20 <HAL_GetTick>
 8001440:	4602      	mov	r2, r0
 8001442:	693b      	ldr	r3, [r7, #16]
 8001444:	1ad3      	subs	r3, r2, r3
 8001446:	2b02      	cmp	r3, #2
 8001448:	d901      	bls.n	800144e <HAL_RCC_OscConfig+0x4aa>
          {
            return HAL_TIMEOUT;
 800144a:	2303      	movs	r3, #3
 800144c:	e020      	b.n	8001490 <HAL_RCC_OscConfig+0x4ec>
        while (__HAL_RCC_GET_FLAG(RCC_FLAG_PLLRDY)  != RESET)
 800144e:	4b12      	ldr	r3, [pc, #72]	; (8001498 <HAL_RCC_OscConfig+0x4f4>)
 8001450:	681b      	ldr	r3, [r3, #0]
 8001452:	f003 7300 	and.w	r3, r3, #33554432	; 0x2000000
 8001456:	2b00      	cmp	r3, #0
 8001458:	d1f0      	bne.n	800143c <HAL_RCC_OscConfig+0x498>
 800145a:	e018      	b.n	800148e <HAL_RCC_OscConfig+0x4ea>
      }
    }
    else
    {
      /* Check if there is a request to disable the PLL used as System clock source */
      if ((RCC_OscInitStruct->PLL.PLLState) == RCC_PLL_OFF)
 800145c:	687b      	ldr	r3, [r7, #4]
 800145e:	69db      	ldr	r3, [r3, #28]
 8001460:	2b01      	cmp	r3, #1
 8001462:	d101      	bne.n	8001468 <HAL_RCC_OscConfig+0x4c4>
      {
        return HAL_ERROR;
 8001464:	2301      	movs	r3, #1
 8001466:	e013      	b.n	8001490 <HAL_RCC_OscConfig+0x4ec>
      }
      else
      {
        /* Do not return HAL_ERROR if request repeats the current configuration */
        pll_config = RCC->CFGR;
 8001468:	4b0b      	ldr	r3, [pc, #44]	; (8001498 <HAL_RCC_OscConfig+0x4f4>)
 800146a:	685b      	ldr	r3, [r3, #4]
 800146c:	60fb      	str	r3, [r7, #12]
        if ((READ_BIT(pll_config, RCC_CFGR_PLLSRC) != RCC_OscInitStruct->PLL.PLLSource) ||
 800146e:	68fb      	ldr	r3, [r7, #12]
 8001470:	f403 3280 	and.w	r2, r3, #65536	; 0x10000
 8001474:	687b      	ldr	r3, [r7, #4]
 8001476:	6a1b      	ldr	r3, [r3, #32]
 8001478:	429a      	cmp	r2, r3
 800147a:	d106      	bne.n	800148a <HAL_RCC_OscConfig+0x4e6>
            (READ_BIT(pll_config, RCC_CFGR_PLLMULL) != RCC_OscInitStruct->PLL.PLLMUL))
 800147c:	68fb      	ldr	r3, [r7, #12]
 800147e:	f403 1270 	and.w	r2, r3, #3932160	; 0x3c0000
 8001482:	687b      	ldr	r3, [r7, #4]
 8001484:	6a5b      	ldr	r3, [r3, #36]	; 0x24
        if ((READ_BIT(pll_config, RCC_CFGR_PLLSRC) != RCC_OscInitStruct->PLL.PLLSource) ||
 8001486:	429a      	cmp	r2, r3
 8001488:	d001      	beq.n	800148e <HAL_RCC_OscConfig+0x4ea>
        {
          return HAL_ERROR;
 800148a:	2301      	movs	r3, #1
 800148c:	e000      	b.n	8001490 <HAL_RCC_OscConfig+0x4ec>
        }
      }
    }
  }

  return HAL_OK;
 800148e:	2300      	movs	r3, #0
}
 8001490:	4618      	mov	r0, r3
 8001492:	3718      	adds	r7, #24
 8001494:	46bd      	mov	sp, r7
 8001496:	bd80      	pop	{r7, pc}
 8001498:	40021000 	.word	0x40021000
 800149c:	40007000 	.word	0x40007000
 80014a0:	42420060 	.word	0x42420060

080014a4 <HAL_RCC_ClockConfig>:
  *         You can use @ref HAL_RCC_GetClockConfig() function to know which clock is
  *         currently used as system clock source.
  * @retval HAL status
  */
HAL_StatusTypeDef HAL_RCC_ClockConfig(RCC_ClkInitTypeDef  *RCC_ClkInitStruct, uint32_t FLatency)
{
 80014a4:	b580      	push	{r7, lr}
 80014a6:	b084      	sub	sp, #16
 80014a8:	af00      	add	r7, sp, #0
 80014aa:	6078      	str	r0, [r7, #4]
 80014ac:	6039      	str	r1, [r7, #0]
  uint32_t tickstart;

  /* Check Null pointer */
  if (RCC_ClkInitStruct == NULL)
 80014ae:	687b      	ldr	r3, [r7, #4]
 80014b0:	2b00      	cmp	r3, #0
 80014b2:	d101      	bne.n	80014b8 <HAL_RCC_ClockConfig+0x14>
  {
    return HAL_ERROR;
 80014b4:	2301      	movs	r3, #1
 80014b6:	e0d0      	b.n	800165a <HAL_RCC_ClockConfig+0x1b6>
  must be correctly programmed according to the frequency of the CPU clock
    (HCLK) of the device. */

#if defined(FLASH_ACR_LATENCY)
  /* Increasing the number of wait states because of higher CPU frequency */
  if (FLatency > __HAL_FLASH_GET_LATENCY())
 80014b8:	4b6a      	ldr	r3, [pc, #424]	; (8001664 <HAL_RCC_ClockConfig+0x1c0>)
 80014ba:	681b      	ldr	r3, [r3, #0]
 80014bc:	f003 0307 	and.w	r3, r3, #7
 80014c0:	683a      	ldr	r2, [r7, #0]
 80014c2:	429a      	cmp	r2, r3
 80014c4:	d910      	bls.n	80014e8 <HAL_RCC_ClockConfig+0x44>
  {
    /* Program the new number of wait states to the LATENCY bits in the FLASH_ACR register */
    __HAL_FLASH_SET_LATENCY(FLatency);
 80014c6:	4b67      	ldr	r3, [pc, #412]	; (8001664 <HAL_RCC_ClockConfig+0x1c0>)
 80014c8:	681b      	ldr	r3, [r3, #0]
 80014ca:	f023 0207 	bic.w	r2, r3, #7
 80014ce:	4965      	ldr	r1, [pc, #404]	; (8001664 <HAL_RCC_ClockConfig+0x1c0>)
 80014d0:	683b      	ldr	r3, [r7, #0]
 80014d2:	4313      	orrs	r3, r2
 80014d4:	600b      	str	r3, [r1, #0]

    /* Check that the new number of wait states is taken into account to access the Flash
    memory by reading the FLASH_ACR register */
    if (__HAL_FLASH_GET_LATENCY() != FLatency)
 80014d6:	4b63      	ldr	r3, [pc, #396]	; (8001664 <HAL_RCC_ClockConfig+0x1c0>)
 80014d8:	681b      	ldr	r3, [r3, #0]
 80014da:	f003 0307 	and.w	r3, r3, #7
 80014de:	683a      	ldr	r2, [r7, #0]
 80014e0:	429a      	cmp	r2, r3
 80014e2:	d001      	beq.n	80014e8 <HAL_RCC_ClockConfig+0x44>
  {
    return HAL_ERROR;
 80014e4:	2301      	movs	r3, #1
 80014e6:	e0b8      	b.n	800165a <HAL_RCC_ClockConfig+0x1b6>
  }
}

#endif /* FLASH_ACR_LATENCY */
/*-------------------------- HCLK Configuration --------------------------*/
if (((RCC_ClkInitStruct->ClockType) & RCC_CLOCKTYPE_HCLK) == RCC_CLOCKTYPE_HCLK)
 80014e8:	687b      	ldr	r3, [r7, #4]
 80014ea:	681b      	ldr	r3, [r3, #0]
 80014ec:	f003 0302 	and.w	r3, r3, #2
 80014f0:	2b00      	cmp	r3, #0
 80014f2:	d020      	beq.n	8001536 <HAL_RCC_ClockConfig+0x92>
  {
    /* Set the highest APBx dividers in order to ensure that we do not go through
    a non-spec phase whatever we decrease or increase HCLK. */
    if (((RCC_ClkInitStruct->ClockType) & RCC_CLOCKTYPE_PCLK1) == RCC_CLOCKTYPE_PCLK1)
 80014f4:	687b      	ldr	r3, [r7, #4]
 80014f6:	681b      	ldr	r3, [r3, #0]
 80014f8:	f003 0304 	and.w	r3, r3, #4
 80014fc:	2b00      	cmp	r3, #0
 80014fe:	d005      	beq.n	800150c <HAL_RCC_ClockConfig+0x68>
    {
      MODIFY_REG(RCC->CFGR, RCC_CFGR_PPRE1, RCC_HCLK_DIV16);
 8001500:	4b59      	ldr	r3, [pc, #356]	; (8001668 <HAL_RCC_ClockConfig+0x1c4>)
 8001502:	685b      	ldr	r3, [r3, #4]
 8001504:	4a58      	ldr	r2, [pc, #352]	; (8001668 <HAL_RCC_ClockConfig+0x1c4>)
 8001506:	f443 63e0 	orr.w	r3, r3, #1792	; 0x700
 800150a:	6053      	str	r3, [r2, #4]
    }

    if (((RCC_ClkInitStruct->ClockType) & RCC_CLOCKTYPE_PCLK2) == RCC_CLOCKTYPE_PCLK2)
 800150c:	687b      	ldr	r3, [r7, #4]
 800150e:	681b      	ldr	r3, [r3, #0]
 8001510:	f003 0308 	and.w	r3, r3, #8
 8001514:	2b00      	cmp	r3, #0
 8001516:	d005      	beq.n	8001524 <HAL_RCC_ClockConfig+0x80>
    {
      MODIFY_REG(RCC->CFGR, RCC_CFGR_PPRE2, (RCC_HCLK_DIV16 << 3));
 8001518:	4b53      	ldr	r3, [pc, #332]	; (8001668 <HAL_RCC_ClockConfig+0x1c4>)
 800151a:	685b      	ldr	r3, [r3, #4]
 800151c:	4a52      	ldr	r2, [pc, #328]	; (8001668 <HAL_RCC_ClockConfig+0x1c4>)
 800151e:	f443 5360 	orr.w	r3, r3, #14336	; 0x3800
 8001522:	6053      	str	r3, [r2, #4]
    }

    /* Set the new HCLK clock divider */
    assert_param(IS_RCC_HCLK(RCC_ClkInitStruct->AHBCLKDivider));
    MODIFY_REG(RCC->CFGR, RCC_CFGR_HPRE, RCC_ClkInitStruct->AHBCLKDivider);
 8001524:	4b50      	ldr	r3, [pc, #320]	; (8001668 <HAL_RCC_ClockConfig+0x1c4>)
 8001526:	685b      	ldr	r3, [r3, #4]
 8001528:	f023 02f0 	bic.w	r2, r3, #240	; 0xf0
 800152c:	687b      	ldr	r3, [r7, #4]
 800152e:	689b      	ldr	r3, [r3, #8]
 8001530:	494d      	ldr	r1, [pc, #308]	; (8001668 <HAL_RCC_ClockConfig+0x1c4>)
 8001532:	4313      	orrs	r3, r2
 8001534:	604b      	str	r3, [r1, #4]
  }

  /*------------------------- SYSCLK Configuration ---------------------------*/
  if (((RCC_ClkInitStruct->ClockType) & RCC_CLOCKTYPE_SYSCLK) == RCC_CLOCKTYPE_SYSCLK)
 8001536:	687b      	ldr	r3, [r7, #4]
 8001538:	681b      	ldr	r3, [r3, #0]
 800153a:	f003 0301 	and.w	r3, r3, #1
 800153e:	2b00      	cmp	r3, #0
 8001540:	d040      	beq.n	80015c4 <HAL_RCC_ClockConfig+0x120>
  {
    assert_param(IS_RCC_SYSCLKSOURCE(RCC_ClkInitStruct->SYSCLKSource));

    /* HSE is selected as System Clock Source */
    if (RCC_ClkInitStruct->SYSCLKSource == RCC_SYSCLKSOURCE_HSE)
 8001542:	687b      	ldr	r3, [r7, #4]
 8001544:	685b      	ldr	r3, [r3, #4]
 8001546:	2b01      	cmp	r3, #1
 8001548:	d107      	bne.n	800155a <HAL_RCC_ClockConfig+0xb6>
    {
      /* Check the HSE ready flag */
      if (__HAL_RCC_GET_FLAG(RCC_FLAG_HSERDY) == RESET)
 800154a:	4b47      	ldr	r3, [pc, #284]	; (8001668 <HAL_RCC_ClockConfig+0x1c4>)
 800154c:	681b      	ldr	r3, [r3, #0]
 800154e:	f403 3300 	and.w	r3, r3, #131072	; 0x20000
 8001552:	2b00      	cmp	r3, #0
 8001554:	d115      	bne.n	8001582 <HAL_RCC_ClockConfig+0xde>
      {
        return HAL_ERROR;
 8001556:	2301      	movs	r3, #1
 8001558:	e07f      	b.n	800165a <HAL_RCC_ClockConfig+0x1b6>
      }
    }
    /* PLL is selected as System Clock Source */
    else if (RCC_ClkInitStruct->SYSCLKSource == RCC_SYSCLKSOURCE_PLLCLK)
 800155a:	687b      	ldr	r3, [r7, #4]
 800155c:	685b      	ldr	r3, [r3, #4]
 800155e:	2b02      	cmp	r3, #2
 8001560:	d107      	bne.n	8001572 <HAL_RCC_ClockConfig+0xce>
    {
      /* Check the PLL ready flag */
      if (__HAL_RCC_GET_FLAG(RCC_FLAG_PLLRDY) == RESET)
 8001562:	4b41      	ldr	r3, [pc, #260]	; (8001668 <HAL_RCC_ClockConfig+0x1c4>)
 8001564:	681b      	ldr	r3, [r3, #0]
 8001566:	f003 7300 	and.w	r3, r3, #33554432	; 0x2000000
 800156a:	2b00      	cmp	r3, #0
 800156c:	d109      	bne.n	8001582 <HAL_RCC_ClockConfig+0xde>
      {
        return HAL_ERROR;
 800156e:	2301      	movs	r3, #1
 8001570:	e073      	b.n	800165a <HAL_RCC_ClockConfig+0x1b6>
    }
    /* HSI is selected as System Clock Source */
    else
    {
      /* Check the HSI ready flag */
      if (__HAL_RCC_GET_FLAG(RCC_FLAG_HSIRDY) == RESET)
 8001572:	4b3d      	ldr	r3, [pc, #244]	; (8001668 <HAL_RCC_ClockConfig+0x1c4>)
 8001574:	681b      	ldr	r3, [r3, #0]
 8001576:	f003 0302 	and.w	r3, r3, #2
 800157a:	2b00      	cmp	r3, #0
 800157c:	d101      	bne.n	8001582 <HAL_RCC_ClockConfig+0xde>
      {
        return HAL_ERROR;
 800157e:	2301      	movs	r3, #1
 8001580:	e06b      	b.n	800165a <HAL_RCC_ClockConfig+0x1b6>
      }
    }
    __HAL_RCC_SYSCLK_CONFIG(RCC_ClkInitStruct->SYSCLKSource);
 8001582:	4b39      	ldr	r3, [pc, #228]	; (8001668 <HAL_RCC_ClockConfig+0x1c4>)
 8001584:	685b      	ldr	r3, [r3, #4]
 8001586:	f023 0203 	bic.w	r2, r3, #3
 800158a:	687b      	ldr	r3, [r7, #4]
 800158c:	685b      	ldr	r3, [r3, #4]
 800158e:	4936      	ldr	r1, [pc, #216]	; (8001668 <HAL_RCC_ClockConfig+0x1c4>)
 8001590:	4313      	orrs	r3, r2
 8001592:	604b      	str	r3, [r1, #4]

    /* Get Start Tick */
    tickstart = HAL_GetTick();
 8001594:	f7ff fa44 	bl	8000a20 <HAL_GetTick>
 8001598:	60f8      	str	r0, [r7, #12]

    while (__HAL_RCC_GET_SYSCLK_SOURCE() != (RCC_ClkInitStruct->SYSCLKSource << RCC_CFGR_SWS_Pos))
 800159a:	e00a      	b.n	80015b2 <HAL_RCC_ClockConfig+0x10e>
    {
      if ((HAL_GetTick() - tickstart) > CLOCKSWITCH_TIMEOUT_VALUE)
 800159c:	f7ff fa40 	bl	8000a20 <HAL_GetTick>
 80015a0:	4602      	mov	r2, r0
 80015a2:	68fb      	ldr	r3, [r7, #12]
 80015a4:	1ad3      	subs	r3, r2, r3
 80015a6:	f241 3288 	movw	r2, #5000	; 0x1388
 80015aa:	4293      	cmp	r3, r2
 80015ac:	d901      	bls.n	80015b2 <HAL_RCC_ClockConfig+0x10e>
      {
        return HAL_TIMEOUT;
 80015ae:	2303      	movs	r3, #3
 80015b0:	e053      	b.n	800165a <HAL_RCC_ClockConfig+0x1b6>
    while (__HAL_RCC_GET_SYSCLK_SOURCE() != (RCC_ClkInitStruct->SYSCLKSource << RCC_CFGR_SWS_Pos))
 80015b2:	4b2d      	ldr	r3, [pc, #180]	; (8001668 <HAL_RCC_ClockConfig+0x1c4>)
 80015b4:	685b      	ldr	r3, [r3, #4]
 80015b6:	f003 020c 	and.w	r2, r3, #12
 80015ba:	687b      	ldr	r3, [r7, #4]
 80015bc:	685b      	ldr	r3, [r3, #4]
 80015be:	009b      	lsls	r3, r3, #2
 80015c0:	429a      	cmp	r2, r3
 80015c2:	d1eb      	bne.n	800159c <HAL_RCC_ClockConfig+0xf8>
    }
  }

#if defined(FLASH_ACR_LATENCY)
  /* Decreasing the number of wait states because of lower CPU frequency */
  if (FLatency < __HAL_FLASH_GET_LATENCY())
 80015c4:	4b27      	ldr	r3, [pc, #156]	; (8001664 <HAL_RCC_ClockConfig+0x1c0>)
 80015c6:	681b      	ldr	r3, [r3, #0]
 80015c8:	f003 0307 	and.w	r3, r3, #7
 80015cc:	683a      	ldr	r2, [r7, #0]
 80015ce:	429a      	cmp	r2, r3
 80015d0:	d210      	bcs.n	80015f4 <HAL_RCC_ClockConfig+0x150>
  {
    /* Program the new number of wait states to the LATENCY bits in the FLASH_ACR register */
    __HAL_FLASH_SET_LATENCY(FLatency);
 80015d2:	4b24      	ldr	r3, [pc, #144]	; (8001664 <HAL_RCC_ClockConfig+0x1c0>)
 80015d4:	681b      	ldr	r3, [r3, #0]
 80015d6:	f023 0207 	bic.w	r2, r3, #7
 80015da:	4922      	ldr	r1, [pc, #136]	; (8001664 <HAL_RCC_ClockConfig+0x1c0>)
 80015dc:	683b      	ldr	r3, [r7, #0]
 80015de:	4313      	orrs	r3, r2
 80015e0:	600b      	str	r3, [r1, #0]

    /* Check that the new number of wait states is taken into account to access the Flash
    memory by reading the FLASH_ACR register */
    if (__HAL_FLASH_GET_LATENCY() != FLatency)
 80015e2:	4b20      	ldr	r3, [pc, #128]	; (8001664 <HAL_RCC_ClockConfig+0x1c0>)
 80015e4:	681b      	ldr	r3, [r3, #0]
 80015e6:	f003 0307 	and.w	r3, r3, #7
 80015ea:	683a      	ldr	r2, [r7, #0]
 80015ec:	429a      	cmp	r2, r3
 80015ee:	d001      	beq.n	80015f4 <HAL_RCC_ClockConfig+0x150>
  {
    return HAL_ERROR;
 80015f0:	2301      	movs	r3, #1
 80015f2:	e032      	b.n	800165a <HAL_RCC_ClockConfig+0x1b6>
  }
}
#endif /* FLASH_ACR_LATENCY */

/*-------------------------- PCLK1 Configuration ---------------------------*/
if (((RCC_ClkInitStruct->ClockType) & RCC_CLOCKTYPE_PCLK1) == RCC_CLOCKTYPE_PCLK1)
 80015f4:	687b      	ldr	r3, [r7, #4]
 80015f6:	681b      	ldr	r3, [r3, #0]
 80015f8:	f003 0304 	and.w	r3, r3, #4
 80015fc:	2b00      	cmp	r3, #0
 80015fe:	d008      	beq.n	8001612 <HAL_RCC_ClockConfig+0x16e>
  {
    assert_param(IS_RCC_PCLK(RCC_ClkInitStruct->APB1CLKDivider));
    MODIFY_REG(RCC->CFGR, RCC_CFGR_PPRE1, RCC_ClkInitStruct->APB1CLKDivider);
 8001600:	4b19      	ldr	r3, [pc, #100]	; (8001668 <HAL_RCC_ClockConfig+0x1c4>)
 8001602:	685b      	ldr	r3, [r3, #4]
 8001604:	f423 62e0 	bic.w	r2, r3, #1792	; 0x700
 8001608:	687b      	ldr	r3, [r7, #4]
 800160a:	68db      	ldr	r3, [r3, #12]
 800160c:	4916      	ldr	r1, [pc, #88]	; (8001668 <HAL_RCC_ClockConfig+0x1c4>)
 800160e:	4313      	orrs	r3, r2
 8001610:	604b      	str	r3, [r1, #4]
  }

  /*-------------------------- PCLK2 Configuration ---------------------------*/
  if (((RCC_ClkInitStruct->ClockType) & RCC_CLOCKTYPE_PCLK2) == RCC_CLOCKTYPE_PCLK2)
 8001612:	687b      	ldr	r3, [r7, #4]
 8001614:	681b      	ldr	r3, [r3, #0]
 8001616:	f003 0308 	and.w	r3, r3, #8
 800161a:	2b00      	cmp	r3, #0
 800161c:	d009      	beq.n	8001632 <HAL_RCC_ClockConfig+0x18e>
  {
    assert_param(IS_RCC_PCLK(RCC_ClkInitStruct->APB2CLKDivider));
    MODIFY_REG(RCC->CFGR, RCC_CFGR_PPRE2, ((RCC_ClkInitStruct->APB2CLKDivider) << 3));
 800161e:	4b12      	ldr	r3, [pc, #72]	; (8001668 <HAL_RCC_ClockConfig+0x1c4>)
 8001620:	685b      	ldr	r3, [r3, #4]
 8001622:	f423 5260 	bic.w	r2, r3, #14336	; 0x3800
 8001626:	687b      	ldr	r3, [r7, #4]
 8001628:	691b      	ldr	r3, [r3, #16]
 800162a:	00db      	lsls	r3, r3, #3
 800162c:	490e      	ldr	r1, [pc, #56]	; (8001668 <HAL_RCC_ClockConfig+0x1c4>)
 800162e:	4313      	orrs	r3, r2
 8001630:	604b      	str	r3, [r1, #4]
  }

  /* Update the SystemCoreClock global variable */
  SystemCoreClock = HAL_RCC_GetSysClockFreq() >> AHBPrescTable[(RCC->CFGR & RCC_CFGR_HPRE) >> RCC_CFGR_HPRE_Pos];
 8001632:	f000 f821 	bl	8001678 <HAL_RCC_GetSysClockFreq>
 8001636:	4602      	mov	r2, r0
 8001638:	4b0b      	ldr	r3, [pc, #44]	; (8001668 <HAL_RCC_ClockConfig+0x1c4>)
 800163a:	685b      	ldr	r3, [r3, #4]
 800163c:	091b      	lsrs	r3, r3, #4
 800163e:	f003 030f 	and.w	r3, r3, #15
 8001642:	490a      	ldr	r1, [pc, #40]	; (800166c <HAL_RCC_ClockConfig+0x1c8>)
 8001644:	5ccb      	ldrb	r3, [r1, r3]
 8001646:	fa22 f303 	lsr.w	r3, r2, r3
 800164a:	4a09      	ldr	r2, [pc, #36]	; (8001670 <HAL_RCC_ClockConfig+0x1cc>)
 800164c:	6013      	str	r3, [r2, #0]

  /* Configure the source of time base considering new system clocks settings*/
  HAL_InitTick(uwTickPrio);
 800164e:	4b09      	ldr	r3, [pc, #36]	; (8001674 <HAL_RCC_ClockConfig+0x1d0>)
 8001650:	681b      	ldr	r3, [r3, #0]
 8001652:	4618      	mov	r0, r3
 8001654:	f7ff f9a2 	bl	800099c <HAL_InitTick>

  return HAL_OK;
 8001658:	2300      	movs	r3, #0
}
 800165a:	4618      	mov	r0, r3
 800165c:	3710      	adds	r7, #16
 800165e:	46bd      	mov	sp, r7
 8001660:	bd80      	pop	{r7, pc}
 8001662:	bf00      	nop
 8001664:	40022000 	.word	0x40022000
 8001668:	40021000 	.word	0x40021000
 800166c:	08001fbc 	.word	0x08001fbc
 8001670:	20000020 	.word	0x20000020
 8001674:	20000024 	.word	0x20000024

08001678 <HAL_RCC_GetSysClockFreq>:
  *         right SYSCLK value. Otherwise, any configuration based on this function will be incorrect.
  *
  * @retval SYSCLK frequency
  */
uint32_t HAL_RCC_GetSysClockFreq(void)
{
 8001678:	b490      	push	{r4, r7}
 800167a:	b08a      	sub	sp, #40	; 0x28
 800167c:	af00      	add	r7, sp, #0
#if defined(RCC_CFGR2_PREDIV1SRC)
  const uint8_t aPLLMULFactorTable[14] = {0, 0, 4, 5, 6, 7, 8, 9, 0, 0, 0, 0, 0, 13};
  const uint8_t aPredivFactorTable[16] = {1, 2, 3, 4, 5, 6, 7, 8, 9, 10, 11, 12, 13, 14, 15, 16};
#else
  const uint8_t aPLLMULFactorTable[16] = {2, 3, 4, 5, 6, 7, 8, 9, 10, 11, 12, 13, 14, 15, 16, 16};
 800167e:	4b2a      	ldr	r3, [pc, #168]	; (8001728 <HAL_RCC_GetSysClockFreq+0xb0>)
 8001680:	1d3c      	adds	r4, r7, #4
 8001682:	cb0f      	ldmia	r3, {r0, r1, r2, r3}
 8001684:	e884 000f 	stmia.w	r4, {r0, r1, r2, r3}
#if defined(RCC_CFGR2_PREDIV1)
  const uint8_t aPredivFactorTable[16] = {1, 2, 3, 4, 5, 6, 7, 8, 9, 10, 11, 12, 13, 14, 15, 16};
#else
  const uint8_t aPredivFactorTable[2] = {1, 2};
 8001688:	f240 2301 	movw	r3, #513	; 0x201
 800168c:	803b      	strh	r3, [r7, #0]
#endif /*RCC_CFGR2_PREDIV1*/

#endif
  uint32_t tmpreg = 0U, prediv = 0U, pllclk = 0U, pllmul = 0U;
 800168e:	2300      	movs	r3, #0
 8001690:	61fb      	str	r3, [r7, #28]
 8001692:	2300      	movs	r3, #0
 8001694:	61bb      	str	r3, [r7, #24]
 8001696:	2300      	movs	r3, #0
 8001698:	627b      	str	r3, [r7, #36]	; 0x24
 800169a:	2300      	movs	r3, #0
 800169c:	617b      	str	r3, [r7, #20]
  uint32_t sysclockfreq = 0U;
 800169e:	2300      	movs	r3, #0
 80016a0:	623b      	str	r3, [r7, #32]
#if defined(RCC_CFGR2_PREDIV1SRC)
  uint32_t prediv2 = 0U, pll2mul = 0U;
#endif /*RCC_CFGR2_PREDIV1SRC*/

  tmpreg = RCC->CFGR;
 80016a2:	4b22      	ldr	r3, [pc, #136]	; (800172c <HAL_RCC_GetSysClockFreq+0xb4>)
 80016a4:	685b      	ldr	r3, [r3, #4]
 80016a6:	61fb      	str	r3, [r7, #28]

  /* Get SYSCLK source -------------------------------------------------------*/
  switch (tmpreg & RCC_CFGR_SWS)
 80016a8:	69fb      	ldr	r3, [r7, #28]
 80016aa:	f003 030c 	and.w	r3, r3, #12
 80016ae:	2b04      	cmp	r3, #4
 80016b0:	d002      	beq.n	80016b8 <HAL_RCC_GetSysClockFreq+0x40>
 80016b2:	2b08      	cmp	r3, #8
 80016b4:	d003      	beq.n	80016be <HAL_RCC_GetSysClockFreq+0x46>
 80016b6:	e02d      	b.n	8001714 <HAL_RCC_GetSysClockFreq+0x9c>
  {
    case RCC_SYSCLKSOURCE_STATUS_HSE:  /* HSE used as system clock */
    {
      sysclockfreq = HSE_VALUE;
 80016b8:	4b1d      	ldr	r3, [pc, #116]	; (8001730 <HAL_RCC_GetSysClockFreq+0xb8>)
 80016ba:	623b      	str	r3, [r7, #32]
      break;
 80016bc:	e02d      	b.n	800171a <HAL_RCC_GetSysClockFreq+0xa2>
    }
    case RCC_SYSCLKSOURCE_STATUS_PLLCLK:  /* PLL used as system clock */
    {
      pllmul = aPLLMULFactorTable[(uint32_t)(tmpreg & RCC_CFGR_PLLMULL) >> RCC_CFGR_PLLMULL_Pos];
 80016be:	69fb      	ldr	r3, [r7, #28]
 80016c0:	0c9b      	lsrs	r3, r3, #18
 80016c2:	f003 030f 	and.w	r3, r3, #15
 80016c6:	f107 0228 	add.w	r2, r7, #40	; 0x28
 80016ca:	4413      	add	r3, r2
 80016cc:	f813 3c24 	ldrb.w	r3, [r3, #-36]
 80016d0:	617b      	str	r3, [r7, #20]
      if ((tmpreg & RCC_CFGR_PLLSRC) != RCC_PLLSOURCE_HSI_DIV2)
 80016d2:	69fb      	ldr	r3, [r7, #28]
 80016d4:	f403 3380 	and.w	r3, r3, #65536	; 0x10000
 80016d8:	2b00      	cmp	r3, #0
 80016da:	d013      	beq.n	8001704 <HAL_RCC_GetSysClockFreq+0x8c>
      {
#if defined(RCC_CFGR2_PREDIV1)
        prediv = aPredivFactorTable[(uint32_t)(RCC->CFGR2 & RCC_CFGR2_PREDIV1) >> RCC_CFGR2_PREDIV1_Pos];
#else
        prediv = aPredivFactorTable[(uint32_t)(RCC->CFGR & RCC_CFGR_PLLXTPRE) >> RCC_CFGR_PLLXTPRE_Pos];
 80016dc:	4b13      	ldr	r3, [pc, #76]	; (800172c <HAL_RCC_GetSysClockFreq+0xb4>)
 80016de:	685b      	ldr	r3, [r3, #4]
 80016e0:	0c5b      	lsrs	r3, r3, #17
 80016e2:	f003 0301 	and.w	r3, r3, #1
 80016e6:	f107 0228 	add.w	r2, r7, #40	; 0x28
 80016ea:	4413      	add	r3, r2
 80016ec:	f813 3c28 	ldrb.w	r3, [r3, #-40]
 80016f0:	61bb      	str	r3, [r7, #24]
        {
          pllclk = pllclk / 2;
        }
#else
        /* HSE used as PLL clock source : PLLCLK = HSE/PREDIV1 * PLLMUL */
        pllclk = (uint32_t)((HSE_VALUE  * pllmul) / prediv);
 80016f2:	697b      	ldr	r3, [r7, #20]
 80016f4:	4a0e      	ldr	r2, [pc, #56]	; (8001730 <HAL_RCC_GetSysClockFreq+0xb8>)
 80016f6:	fb02 f203 	mul.w	r2, r2, r3
 80016fa:	69bb      	ldr	r3, [r7, #24]
 80016fc:	fbb2 f3f3 	udiv	r3, r2, r3
 8001700:	627b      	str	r3, [r7, #36]	; 0x24
 8001702:	e004      	b.n	800170e <HAL_RCC_GetSysClockFreq+0x96>
#endif /*RCC_CFGR2_PREDIV1SRC*/
      }
      else
      {
        /* HSI used as PLL clock source : PLLCLK = HSI/2 * PLLMUL */
        pllclk = (uint32_t)((HSI_VALUE >> 1) * pllmul);
 8001704:	697b      	ldr	r3, [r7, #20]
 8001706:	4a0b      	ldr	r2, [pc, #44]	; (8001734 <HAL_RCC_GetSysClockFreq+0xbc>)
 8001708:	fb02 f303 	mul.w	r3, r2, r3
 800170c:	627b      	str	r3, [r7, #36]	; 0x24
      }
      sysclockfreq = pllclk;
 800170e:	6a7b      	ldr	r3, [r7, #36]	; 0x24
 8001710:	623b      	str	r3, [r7, #32]
      break;
 8001712:	e002      	b.n	800171a <HAL_RCC_GetSysClockFreq+0xa2>
    }
    case RCC_SYSCLKSOURCE_STATUS_HSI:  /* HSI used as system clock source */
    default: /* HSI used as system clock */
    {
      sysclockfreq = HSI_VALUE;
 8001714:	4b06      	ldr	r3, [pc, #24]	; (8001730 <HAL_RCC_GetSysClockFreq+0xb8>)
 8001716:	623b      	str	r3, [r7, #32]
      break;
 8001718:	bf00      	nop
    }
  }
  return sysclockfreq;
 800171a:	6a3b      	ldr	r3, [r7, #32]
}
 800171c:	4618      	mov	r0, r3
 800171e:	3728      	adds	r7, #40	; 0x28
 8001720:	46bd      	mov	sp, r7
 8001722:	bc90      	pop	{r4, r7}
 8001724:	4770      	bx	lr
 8001726:	bf00      	nop
 8001728:	08001fac 	.word	0x08001fac
 800172c:	40021000 	.word	0x40021000
 8001730:	007a1200 	.word	0x007a1200
 8001734:	003d0900 	.word	0x003d0900

08001738 <RCC_Delay>:
  * @brief  This function provides delay (in milliseconds) based on CPU cycles method.
  * @param  mdelay: specifies the delay time length, in milliseconds.
  * @retval None
  */
static void RCC_Delay(uint32_t mdelay)
{
 8001738:	b480      	push	{r7}
 800173a:	b085      	sub	sp, #20
 800173c:	af00      	add	r7, sp, #0
 800173e:	6078      	str	r0, [r7, #4]
  __IO uint32_t Delay = mdelay * (SystemCoreClock / 8U / 1000U);
 8001740:	4b0a      	ldr	r3, [pc, #40]	; (800176c <RCC_Delay+0x34>)
 8001742:	681b      	ldr	r3, [r3, #0]
 8001744:	4a0a      	ldr	r2, [pc, #40]	; (8001770 <RCC_Delay+0x38>)
 8001746:	fba2 2303 	umull	r2, r3, r2, r3
 800174a:	0a5b      	lsrs	r3, r3, #9
 800174c:	687a      	ldr	r2, [r7, #4]
 800174e:	fb02 f303 	mul.w	r3, r2, r3
 8001752:	60fb      	str	r3, [r7, #12]
  do
  {
    __NOP();
 8001754:	bf00      	nop
  }
  while (Delay --);
 8001756:	68fb      	ldr	r3, [r7, #12]
 8001758:	1e5a      	subs	r2, r3, #1
 800175a:	60fa      	str	r2, [r7, #12]
 800175c:	2b00      	cmp	r3, #0
 800175e:	d1f9      	bne.n	8001754 <RCC_Delay+0x1c>
}
 8001760:	bf00      	nop
 8001762:	bf00      	nop
 8001764:	3714      	adds	r7, #20
 8001766:	46bd      	mov	sp, r7
 8001768:	bc80      	pop	{r7}
 800176a:	4770      	bx	lr
 800176c:	20000020 	.word	0x20000020
 8001770:	10624dd3 	.word	0x10624dd3

08001774 <HAL_TIM_Base_Init>:
  *         Ex: call @ref HAL_TIM_Base_DeInit() before HAL_TIM_Base_Init()
  * @param  htim TIM Base handle
  * @retval HAL status
  */
HAL_StatusTypeDef HAL_TIM_Base_Init(TIM_HandleTypeDef *htim)
{
 8001774:	b580      	push	{r7, lr}
 8001776:	b082      	sub	sp, #8
 8001778:	af00      	add	r7, sp, #0
 800177a:	6078      	str	r0, [r7, #4]
  /* Check the TIM handle allocation */
  if (htim == NULL)
 800177c:	687b      	ldr	r3, [r7, #4]
 800177e:	2b00      	cmp	r3, #0
 8001780:	d101      	bne.n	8001786 <HAL_TIM_Base_Init+0x12>
  {
    return HAL_ERROR;
 8001782:	2301      	movs	r3, #1
 8001784:	e041      	b.n	800180a <HAL_TIM_Base_Init+0x96>
  assert_param(IS_TIM_INSTANCE(htim->Instance));
  assert_param(IS_TIM_COUNTER_MODE(htim->Init.CounterMode));
  assert_param(IS_TIM_CLOCKDIVISION_DIV(htim->Init.ClockDivision));
  assert_param(IS_TIM_AUTORELOAD_PRELOAD(htim->Init.AutoReloadPreload));

  if (htim->State == HAL_TIM_STATE_RESET)
 8001786:	687b      	ldr	r3, [r7, #4]
 8001788:	f893 303d 	ldrb.w	r3, [r3, #61]	; 0x3d
 800178c:	b2db      	uxtb	r3, r3
 800178e:	2b00      	cmp	r3, #0
 8001790:	d106      	bne.n	80017a0 <HAL_TIM_Base_Init+0x2c>
  {
    /* Allocate lock resource and initialize it */
    htim->Lock = HAL_UNLOCKED;
 8001792:	687b      	ldr	r3, [r7, #4]
 8001794:	2200      	movs	r2, #0
 8001796:	f883 203c 	strb.w	r2, [r3, #60]	; 0x3c
    }
    /* Init the low level hardware : GPIO, CLOCK, NVIC */
    htim->Base_MspInitCallback(htim);
#else
    /* Init the low level hardware : GPIO, CLOCK, NVIC */
    HAL_TIM_Base_MspInit(htim);
 800179a:	6878      	ldr	r0, [r7, #4]
 800179c:	f7ff f866 	bl	800086c <HAL_TIM_Base_MspInit>
#endif /* USE_HAL_TIM_REGISTER_CALLBACKS */
  }

  /* Set the TIM state */
  htim->State = HAL_TIM_STATE_BUSY;
 80017a0:	687b      	ldr	r3, [r7, #4]
 80017a2:	2202      	movs	r2, #2
 80017a4:	f883 203d 	strb.w	r2, [r3, #61]	; 0x3d

  /* Set the Time Base configuration */
  TIM_Base_SetConfig(htim->Instance, &htim->Init);
 80017a8:	687b      	ldr	r3, [r7, #4]
 80017aa:	681a      	ldr	r2, [r3, #0]
 80017ac:	687b      	ldr	r3, [r7, #4]
 80017ae:	3304      	adds	r3, #4
 80017b0:	4619      	mov	r1, r3
 80017b2:	4610      	mov	r0, r2
 80017b4:	f000 fa6a 	bl	8001c8c <TIM_Base_SetConfig>

  /* Initialize the DMA burst operation state */
  htim->DMABurstState = HAL_DMA_BURST_STATE_READY;
 80017b8:	687b      	ldr	r3, [r7, #4]
 80017ba:	2201      	movs	r2, #1
 80017bc:	f883 2046 	strb.w	r2, [r3, #70]	; 0x46

  /* Initialize the TIM channels state */
  TIM_CHANNEL_STATE_SET_ALL(htim, HAL_TIM_CHANNEL_STATE_READY);
 80017c0:	687b      	ldr	r3, [r7, #4]
 80017c2:	2201      	movs	r2, #1
 80017c4:	f883 203e 	strb.w	r2, [r3, #62]	; 0x3e
 80017c8:	687b      	ldr	r3, [r7, #4]
 80017ca:	2201      	movs	r2, #1
 80017cc:	f883 203f 	strb.w	r2, [r3, #63]	; 0x3f
 80017d0:	687b      	ldr	r3, [r7, #4]
 80017d2:	2201      	movs	r2, #1
 80017d4:	f883 2040 	strb.w	r2, [r3, #64]	; 0x40
 80017d8:	687b      	ldr	r3, [r7, #4]
 80017da:	2201      	movs	r2, #1
 80017dc:	f883 2041 	strb.w	r2, [r3, #65]	; 0x41
  TIM_CHANNEL_N_STATE_SET_ALL(htim, HAL_TIM_CHANNEL_STATE_READY);
 80017e0:	687b      	ldr	r3, [r7, #4]
 80017e2:	2201      	movs	r2, #1
 80017e4:	f883 2042 	strb.w	r2, [r3, #66]	; 0x42
 80017e8:	687b      	ldr	r3, [r7, #4]
 80017ea:	2201      	movs	r2, #1
 80017ec:	f883 2043 	strb.w	r2, [r3, #67]	; 0x43
 80017f0:	687b      	ldr	r3, [r7, #4]
 80017f2:	2201      	movs	r2, #1
 80017f4:	f883 2044 	strb.w	r2, [r3, #68]	; 0x44
 80017f8:	687b      	ldr	r3, [r7, #4]
 80017fa:	2201      	movs	r2, #1
 80017fc:	f883 2045 	strb.w	r2, [r3, #69]	; 0x45

  /* Initialize the TIM state*/
  htim->State = HAL_TIM_STATE_READY;
 8001800:	687b      	ldr	r3, [r7, #4]
 8001802:	2201      	movs	r2, #1
 8001804:	f883 203d 	strb.w	r2, [r3, #61]	; 0x3d

  return HAL_OK;
 8001808:	2300      	movs	r3, #0
}
 800180a:	4618      	mov	r0, r3
 800180c:	3708      	adds	r7, #8
 800180e:	46bd      	mov	sp, r7
 8001810:	bd80      	pop	{r7, pc}
	...

08001814 <HAL_TIM_Base_Start_IT>:
  * @brief  Starts the TIM Base generation in interrupt mode.
  * @param  htim TIM Base handle
  * @retval HAL status
  */
HAL_StatusTypeDef HAL_TIM_Base_Start_IT(TIM_HandleTypeDef *htim)
{
 8001814:	b480      	push	{r7}
 8001816:	b085      	sub	sp, #20
 8001818:	af00      	add	r7, sp, #0
 800181a:	6078      	str	r0, [r7, #4]

  /* Check the parameters */
  assert_param(IS_TIM_INSTANCE(htim->Instance));

  /* Check the TIM state */
  if (htim->State != HAL_TIM_STATE_READY)
 800181c:	687b      	ldr	r3, [r7, #4]
 800181e:	f893 303d 	ldrb.w	r3, [r3, #61]	; 0x3d
 8001822:	b2db      	uxtb	r3, r3
 8001824:	2b01      	cmp	r3, #1
 8001826:	d001      	beq.n	800182c <HAL_TIM_Base_Start_IT+0x18>
  {
    return HAL_ERROR;
 8001828:	2301      	movs	r3, #1
 800182a:	e035      	b.n	8001898 <HAL_TIM_Base_Start_IT+0x84>
  }

  /* Set the TIM state */
  htim->State = HAL_TIM_STATE_BUSY;
 800182c:	687b      	ldr	r3, [r7, #4]
 800182e:	2202      	movs	r2, #2
 8001830:	f883 203d 	strb.w	r2, [r3, #61]	; 0x3d

  /* Enable the TIM Update interrupt */
  __HAL_TIM_ENABLE_IT(htim, TIM_IT_UPDATE);
 8001834:	687b      	ldr	r3, [r7, #4]
 8001836:	681b      	ldr	r3, [r3, #0]
 8001838:	68da      	ldr	r2, [r3, #12]
 800183a:	687b      	ldr	r3, [r7, #4]
 800183c:	681b      	ldr	r3, [r3, #0]
 800183e:	f042 0201 	orr.w	r2, r2, #1
 8001842:	60da      	str	r2, [r3, #12]

  /* Enable the Peripheral, except in trigger mode where enable is automatically done with trigger */
  if (IS_TIM_SLAVE_INSTANCE(htim->Instance))
 8001844:	687b      	ldr	r3, [r7, #4]
 8001846:	681b      	ldr	r3, [r3, #0]
 8001848:	4a16      	ldr	r2, [pc, #88]	; (80018a4 <HAL_TIM_Base_Start_IT+0x90>)
 800184a:	4293      	cmp	r3, r2
 800184c:	d009      	beq.n	8001862 <HAL_TIM_Base_Start_IT+0x4e>
 800184e:	687b      	ldr	r3, [r7, #4]
 8001850:	681b      	ldr	r3, [r3, #0]
 8001852:	f1b3 4f80 	cmp.w	r3, #1073741824	; 0x40000000
 8001856:	d004      	beq.n	8001862 <HAL_TIM_Base_Start_IT+0x4e>
 8001858:	687b      	ldr	r3, [r7, #4]
 800185a:	681b      	ldr	r3, [r3, #0]
 800185c:	4a12      	ldr	r2, [pc, #72]	; (80018a8 <HAL_TIM_Base_Start_IT+0x94>)
 800185e:	4293      	cmp	r3, r2
 8001860:	d111      	bne.n	8001886 <HAL_TIM_Base_Start_IT+0x72>
  {
    tmpsmcr = htim->Instance->SMCR & TIM_SMCR_SMS;
 8001862:	687b      	ldr	r3, [r7, #4]
 8001864:	681b      	ldr	r3, [r3, #0]
 8001866:	689b      	ldr	r3, [r3, #8]
 8001868:	f003 0307 	and.w	r3, r3, #7
 800186c:	60fb      	str	r3, [r7, #12]
    if (!IS_TIM_SLAVEMODE_TRIGGER_ENABLED(tmpsmcr))
 800186e:	68fb      	ldr	r3, [r7, #12]
 8001870:	2b06      	cmp	r3, #6
 8001872:	d010      	beq.n	8001896 <HAL_TIM_Base_Start_IT+0x82>
    {
      __HAL_TIM_ENABLE(htim);
 8001874:	687b      	ldr	r3, [r7, #4]
 8001876:	681b      	ldr	r3, [r3, #0]
 8001878:	681a      	ldr	r2, [r3, #0]
 800187a:	687b      	ldr	r3, [r7, #4]
 800187c:	681b      	ldr	r3, [r3, #0]
 800187e:	f042 0201 	orr.w	r2, r2, #1
 8001882:	601a      	str	r2, [r3, #0]
    if (!IS_TIM_SLAVEMODE_TRIGGER_ENABLED(tmpsmcr))
 8001884:	e007      	b.n	8001896 <HAL_TIM_Base_Start_IT+0x82>
    }
  }
  else
  {
    __HAL_TIM_ENABLE(htim);
 8001886:	687b      	ldr	r3, [r7, #4]
 8001888:	681b      	ldr	r3, [r3, #0]
 800188a:	681a      	ldr	r2, [r3, #0]
 800188c:	687b      	ldr	r3, [r7, #4]
 800188e:	681b      	ldr	r3, [r3, #0]
 8001890:	f042 0201 	orr.w	r2, r2, #1
 8001894:	601a      	str	r2, [r3, #0]
  }

  /* Return function status */
  return HAL_OK;
 8001896:	2300      	movs	r3, #0
}
 8001898:	4618      	mov	r0, r3
 800189a:	3714      	adds	r7, #20
 800189c:	46bd      	mov	sp, r7
 800189e:	bc80      	pop	{r7}
 80018a0:	4770      	bx	lr
 80018a2:	bf00      	nop
 80018a4:	40012c00 	.word	0x40012c00
 80018a8:	40000400 	.word	0x40000400

080018ac <HAL_TIM_IRQHandler>:
  * @brief  This function handles TIM interrupts requests.
  * @param  htim TIM  handle
  * @retval None
  */
void HAL_TIM_IRQHandler(TIM_HandleTypeDef *htim)
{
 80018ac:	b580      	push	{r7, lr}
 80018ae:	b082      	sub	sp, #8
 80018b0:	af00      	add	r7, sp, #0
 80018b2:	6078      	str	r0, [r7, #4]
  /* Capture compare 1 event */
  if (__HAL_TIM_GET_FLAG(htim, TIM_FLAG_CC1) != RESET)
 80018b4:	687b      	ldr	r3, [r7, #4]
 80018b6:	681b      	ldr	r3, [r3, #0]
 80018b8:	691b      	ldr	r3, [r3, #16]
 80018ba:	f003 0302 	and.w	r3, r3, #2
 80018be:	2b02      	cmp	r3, #2
 80018c0:	d122      	bne.n	8001908 <HAL_TIM_IRQHandler+0x5c>
  {
    if (__HAL_TIM_GET_IT_SOURCE(htim, TIM_IT_CC1) != RESET)
 80018c2:	687b      	ldr	r3, [r7, #4]
 80018c4:	681b      	ldr	r3, [r3, #0]
 80018c6:	68db      	ldr	r3, [r3, #12]
 80018c8:	f003 0302 	and.w	r3, r3, #2
 80018cc:	2b02      	cmp	r3, #2
 80018ce:	d11b      	bne.n	8001908 <HAL_TIM_IRQHandler+0x5c>
    {
      {
        __HAL_TIM_CLEAR_IT(htim, TIM_IT_CC1);
 80018d0:	687b      	ldr	r3, [r7, #4]
 80018d2:	681b      	ldr	r3, [r3, #0]
 80018d4:	f06f 0202 	mvn.w	r2, #2
 80018d8:	611a      	str	r2, [r3, #16]
        htim->Channel = HAL_TIM_ACTIVE_CHANNEL_1;
 80018da:	687b      	ldr	r3, [r7, #4]
 80018dc:	2201      	movs	r2, #1
 80018de:	771a      	strb	r2, [r3, #28]

        /* Input capture event */
        if ((htim->Instance->CCMR1 & TIM_CCMR1_CC1S) != 0x00U)
 80018e0:	687b      	ldr	r3, [r7, #4]
 80018e2:	681b      	ldr	r3, [r3, #0]
 80018e4:	699b      	ldr	r3, [r3, #24]
 80018e6:	f003 0303 	and.w	r3, r3, #3
 80018ea:	2b00      	cmp	r3, #0
 80018ec:	d003      	beq.n	80018f6 <HAL_TIM_IRQHandler+0x4a>
        {
#if (USE_HAL_TIM_REGISTER_CALLBACKS == 1)
          htim->IC_CaptureCallback(htim);
#else
          HAL_TIM_IC_CaptureCallback(htim);
 80018ee:	6878      	ldr	r0, [r7, #4]
 80018f0:	f000 f9b1 	bl	8001c56 <HAL_TIM_IC_CaptureCallback>
 80018f4:	e005      	b.n	8001902 <HAL_TIM_IRQHandler+0x56>
        {
#if (USE_HAL_TIM_REGISTER_CALLBACKS == 1)
          htim->OC_DelayElapsedCallback(htim);
          htim->PWM_PulseFinishedCallback(htim);
#else
          HAL_TIM_OC_DelayElapsedCallback(htim);
 80018f6:	6878      	ldr	r0, [r7, #4]
 80018f8:	f000 f9a4 	bl	8001c44 <HAL_TIM_OC_DelayElapsedCallback>
          HAL_TIM_PWM_PulseFinishedCallback(htim);
 80018fc:	6878      	ldr	r0, [r7, #4]
 80018fe:	f000 f9b3 	bl	8001c68 <HAL_TIM_PWM_PulseFinishedCallback>
#endif /* USE_HAL_TIM_REGISTER_CALLBACKS */
        }
        htim->Channel = HAL_TIM_ACTIVE_CHANNEL_CLEARED;
 8001902:	687b      	ldr	r3, [r7, #4]
 8001904:	2200      	movs	r2, #0
 8001906:	771a      	strb	r2, [r3, #28]
      }
    }
  }
  /* Capture compare 2 event */
  if (__HAL_TIM_GET_FLAG(htim, TIM_FLAG_CC2) != RESET)
 8001908:	687b      	ldr	r3, [r7, #4]
 800190a:	681b      	ldr	r3, [r3, #0]
 800190c:	691b      	ldr	r3, [r3, #16]
 800190e:	f003 0304 	and.w	r3, r3, #4
 8001912:	2b04      	cmp	r3, #4
 8001914:	d122      	bne.n	800195c <HAL_TIM_IRQHandler+0xb0>
  {
    if (__HAL_TIM_GET_IT_SOURCE(htim, TIM_IT_CC2) != RESET)
 8001916:	687b      	ldr	r3, [r7, #4]
 8001918:	681b      	ldr	r3, [r3, #0]
 800191a:	68db      	ldr	r3, [r3, #12]
 800191c:	f003 0304 	and.w	r3, r3, #4
 8001920:	2b04      	cmp	r3, #4
 8001922:	d11b      	bne.n	800195c <HAL_TIM_IRQHandler+0xb0>
    {
      __HAL_TIM_CLEAR_IT(htim, TIM_IT_CC2);
 8001924:	687b      	ldr	r3, [r7, #4]
 8001926:	681b      	ldr	r3, [r3, #0]
 8001928:	f06f 0204 	mvn.w	r2, #4
 800192c:	611a      	str	r2, [r3, #16]
      htim->Channel = HAL_TIM_ACTIVE_CHANNEL_2;
 800192e:	687b      	ldr	r3, [r7, #4]
 8001930:	2202      	movs	r2, #2
 8001932:	771a      	strb	r2, [r3, #28]
      /* Input capture event */
      if ((htim->Instance->CCMR1 & TIM_CCMR1_CC2S) != 0x00U)
 8001934:	687b      	ldr	r3, [r7, #4]
 8001936:	681b      	ldr	r3, [r3, #0]
 8001938:	699b      	ldr	r3, [r3, #24]
 800193a:	f403 7340 	and.w	r3, r3, #768	; 0x300
 800193e:	2b00      	cmp	r3, #0
 8001940:	d003      	beq.n	800194a <HAL_TIM_IRQHandler+0x9e>
      {
#if (USE_HAL_TIM_REGISTER_CALLBACKS == 1)
        htim->IC_CaptureCallback(htim);
#else
        HAL_TIM_IC_CaptureCallback(htim);
 8001942:	6878      	ldr	r0, [r7, #4]
 8001944:	f000 f987 	bl	8001c56 <HAL_TIM_IC_CaptureCallback>
 8001948:	e005      	b.n	8001956 <HAL_TIM_IRQHandler+0xaa>
      {
#if (USE_HAL_TIM_REGISTER_CALLBACKS == 1)
        htim->OC_DelayElapsedCallback(htim);
        htim->PWM_PulseFinishedCallback(htim);
#else
        HAL_TIM_OC_DelayElapsedCallback(htim);
 800194a:	6878      	ldr	r0, [r7, #4]
 800194c:	f000 f97a 	bl	8001c44 <HAL_TIM_OC_DelayElapsedCallback>
        HAL_TIM_PWM_PulseFinishedCallback(htim);
 8001950:	6878      	ldr	r0, [r7, #4]
 8001952:	f000 f989 	bl	8001c68 <HAL_TIM_PWM_PulseFinishedCallback>
#endif /* USE_HAL_TIM_REGISTER_CALLBACKS */
      }
      htim->Channel = HAL_TIM_ACTIVE_CHANNEL_CLEARED;
 8001956:	687b      	ldr	r3, [r7, #4]
 8001958:	2200      	movs	r2, #0
 800195a:	771a      	strb	r2, [r3, #28]
    }
  }
  /* Capture compare 3 event */
  if (__HAL_TIM_GET_FLAG(htim, TIM_FLAG_CC3) != RESET)
 800195c:	687b      	ldr	r3, [r7, #4]
 800195e:	681b      	ldr	r3, [r3, #0]
 8001960:	691b      	ldr	r3, [r3, #16]
 8001962:	f003 0308 	and.w	r3, r3, #8
 8001966:	2b08      	cmp	r3, #8
 8001968:	d122      	bne.n	80019b0 <HAL_TIM_IRQHandler+0x104>
  {
    if (__HAL_TIM_GET_IT_SOURCE(htim, TIM_IT_CC3) != RESET)
 800196a:	687b      	ldr	r3, [r7, #4]
 800196c:	681b      	ldr	r3, [r3, #0]
 800196e:	68db      	ldr	r3, [r3, #12]
 8001970:	f003 0308 	and.w	r3, r3, #8
 8001974:	2b08      	cmp	r3, #8
 8001976:	d11b      	bne.n	80019b0 <HAL_TIM_IRQHandler+0x104>
    {
      __HAL_TIM_CLEAR_IT(htim, TIM_IT_CC3);
 8001978:	687b      	ldr	r3, [r7, #4]
 800197a:	681b      	ldr	r3, [r3, #0]
 800197c:	f06f 0208 	mvn.w	r2, #8
 8001980:	611a      	str	r2, [r3, #16]
      htim->Channel = HAL_TIM_ACTIVE_CHANNEL_3;
 8001982:	687b      	ldr	r3, [r7, #4]
 8001984:	2204      	movs	r2, #4
 8001986:	771a      	strb	r2, [r3, #28]
      /* Input capture event */
      if ((htim->Instance->CCMR2 & TIM_CCMR2_CC3S) != 0x00U)
 8001988:	687b      	ldr	r3, [r7, #4]
 800198a:	681b      	ldr	r3, [r3, #0]
 800198c:	69db      	ldr	r3, [r3, #28]
 800198e:	f003 0303 	and.w	r3, r3, #3
 8001992:	2b00      	cmp	r3, #0
 8001994:	d003      	beq.n	800199e <HAL_TIM_IRQHandler+0xf2>
      {
#if (USE_HAL_TIM_REGISTER_CALLBACKS == 1)
        htim->IC_CaptureCallback(htim);
#else
        HAL_TIM_IC_CaptureCallback(htim);
 8001996:	6878      	ldr	r0, [r7, #4]
 8001998:	f000 f95d 	bl	8001c56 <HAL_TIM_IC_CaptureCallback>
 800199c:	e005      	b.n	80019aa <HAL_TIM_IRQHandler+0xfe>
      {
#if (USE_HAL_TIM_REGISTER_CALLBACKS == 1)
        htim->OC_DelayElapsedCallback(htim);
        htim->PWM_PulseFinishedCallback(htim);
#else
        HAL_TIM_OC_DelayElapsedCallback(htim);
 800199e:	6878      	ldr	r0, [r7, #4]
 80019a0:	f000 f950 	bl	8001c44 <HAL_TIM_OC_DelayElapsedCallback>
        HAL_TIM_PWM_PulseFinishedCallback(htim);
 80019a4:	6878      	ldr	r0, [r7, #4]
 80019a6:	f000 f95f 	bl	8001c68 <HAL_TIM_PWM_PulseFinishedCallback>
#endif /* USE_HAL_TIM_REGISTER_CALLBACKS */
      }
      htim->Channel = HAL_TIM_ACTIVE_CHANNEL_CLEARED;
 80019aa:	687b      	ldr	r3, [r7, #4]
 80019ac:	2200      	movs	r2, #0
 80019ae:	771a      	strb	r2, [r3, #28]
    }
  }
  /* Capture compare 4 event */
  if (__HAL_TIM_GET_FLAG(htim, TIM_FLAG_CC4) != RESET)
 80019b0:	687b      	ldr	r3, [r7, #4]
 80019b2:	681b      	ldr	r3, [r3, #0]
 80019b4:	691b      	ldr	r3, [r3, #16]
 80019b6:	f003 0310 	and.w	r3, r3, #16
 80019ba:	2b10      	cmp	r3, #16
 80019bc:	d122      	bne.n	8001a04 <HAL_TIM_IRQHandler+0x158>
  {
    if (__HAL_TIM_GET_IT_SOURCE(htim, TIM_IT_CC4) != RESET)
 80019be:	687b      	ldr	r3, [r7, #4]
 80019c0:	681b      	ldr	r3, [r3, #0]
 80019c2:	68db      	ldr	r3, [r3, #12]
 80019c4:	f003 0310 	and.w	r3, r3, #16
 80019c8:	2b10      	cmp	r3, #16
 80019ca:	d11b      	bne.n	8001a04 <HAL_TIM_IRQHandler+0x158>
    {
      __HAL_TIM_CLEAR_IT(htim, TIM_IT_CC4);
 80019cc:	687b      	ldr	r3, [r7, #4]
 80019ce:	681b      	ldr	r3, [r3, #0]
 80019d0:	f06f 0210 	mvn.w	r2, #16
 80019d4:	611a      	str	r2, [r3, #16]
      htim->Channel = HAL_TIM_ACTIVE_CHANNEL_4;
 80019d6:	687b      	ldr	r3, [r7, #4]
 80019d8:	2208      	movs	r2, #8
 80019da:	771a      	strb	r2, [r3, #28]
      /* Input capture event */
      if ((htim->Instance->CCMR2 & TIM_CCMR2_CC4S) != 0x00U)
 80019dc:	687b      	ldr	r3, [r7, #4]
 80019de:	681b      	ldr	r3, [r3, #0]
 80019e0:	69db      	ldr	r3, [r3, #28]
 80019e2:	f403 7340 	and.w	r3, r3, #768	; 0x300
 80019e6:	2b00      	cmp	r3, #0
 80019e8:	d003      	beq.n	80019f2 <HAL_TIM_IRQHandler+0x146>
      {
#if (USE_HAL_TIM_REGISTER_CALLBACKS == 1)
        htim->IC_CaptureCallback(htim);
#else
        HAL_TIM_IC_CaptureCallback(htim);
 80019ea:	6878      	ldr	r0, [r7, #4]
 80019ec:	f000 f933 	bl	8001c56 <HAL_TIM_IC_CaptureCallback>
 80019f0:	e005      	b.n	80019fe <HAL_TIM_IRQHandler+0x152>
      {
#if (USE_HAL_TIM_REGISTER_CALLBACKS == 1)
        htim->OC_DelayElapsedCallback(htim);
        htim->PWM_PulseFinishedCallback(htim);
#else
        HAL_TIM_OC_DelayElapsedCallback(htim);
 80019f2:	6878      	ldr	r0, [r7, #4]
 80019f4:	f000 f926 	bl	8001c44 <HAL_TIM_OC_DelayElapsedCallback>
        HAL_TIM_PWM_PulseFinishedCallback(htim);
 80019f8:	6878      	ldr	r0, [r7, #4]
 80019fa:	f000 f935 	bl	8001c68 <HAL_TIM_PWM_PulseFinishedCallback>
#endif /* USE_HAL_TIM_REGISTER_CALLBACKS */
      }
      htim->Channel = HAL_TIM_ACTIVE_CHANNEL_CLEARED;
 80019fe:	687b      	ldr	r3, [r7, #4]
 8001a00:	2200      	movs	r2, #0
 8001a02:	771a      	strb	r2, [r3, #28]
    }
  }
  /* TIM Update event */
  if (__HAL_TIM_GET_FLAG(htim, TIM_FLAG_UPDATE) != RESET)
 8001a04:	687b      	ldr	r3, [r7, #4]
 8001a06:	681b      	ldr	r3, [r3, #0]
 8001a08:	691b      	ldr	r3, [r3, #16]
 8001a0a:	f003 0301 	and.w	r3, r3, #1
 8001a0e:	2b01      	cmp	r3, #1
 8001a10:	d10e      	bne.n	8001a30 <HAL_TIM_IRQHandler+0x184>
  {
    if (__HAL_TIM_GET_IT_SOURCE(htim, TIM_IT_UPDATE) != RESET)
 8001a12:	687b      	ldr	r3, [r7, #4]
 8001a14:	681b      	ldr	r3, [r3, #0]
 8001a16:	68db      	ldr	r3, [r3, #12]
 8001a18:	f003 0301 	and.w	r3, r3, #1
 8001a1c:	2b01      	cmp	r3, #1
 8001a1e:	d107      	bne.n	8001a30 <HAL_TIM_IRQHandler+0x184>
    {
      __HAL_TIM_CLEAR_IT(htim, TIM_IT_UPDATE);
 8001a20:	687b      	ldr	r3, [r7, #4]
 8001a22:	681b      	ldr	r3, [r3, #0]
 8001a24:	f06f 0201 	mvn.w	r2, #1
 8001a28:	611a      	str	r2, [r3, #16]
#if (USE_HAL_TIM_REGISTER_CALLBACKS == 1)
      htim->PeriodElapsedCallback(htim);
#else
      HAL_TIM_PeriodElapsedCallback(htim);
 8001a2a:	6878      	ldr	r0, [r7, #4]
 8001a2c:	f7fe feda 	bl	80007e4 <HAL_TIM_PeriodElapsedCallback>
#endif /* USE_HAL_TIM_REGISTER_CALLBACKS */
    }
  }
  /* TIM Break input event */
  if (__HAL_TIM_GET_FLAG(htim, TIM_FLAG_BREAK) != RESET)
 8001a30:	687b      	ldr	r3, [r7, #4]
 8001a32:	681b      	ldr	r3, [r3, #0]
 8001a34:	691b      	ldr	r3, [r3, #16]
 8001a36:	f003 0380 	and.w	r3, r3, #128	; 0x80
 8001a3a:	2b80      	cmp	r3, #128	; 0x80
 8001a3c:	d10e      	bne.n	8001a5c <HAL_TIM_IRQHandler+0x1b0>
  {
    if (__HAL_TIM_GET_IT_SOURCE(htim, TIM_IT_BREAK) != RESET)
 8001a3e:	687b      	ldr	r3, [r7, #4]
 8001a40:	681b      	ldr	r3, [r3, #0]
 8001a42:	68db      	ldr	r3, [r3, #12]
 8001a44:	f003 0380 	and.w	r3, r3, #128	; 0x80
 8001a48:	2b80      	cmp	r3, #128	; 0x80
 8001a4a:	d107      	bne.n	8001a5c <HAL_TIM_IRQHandler+0x1b0>
    {
      __HAL_TIM_CLEAR_IT(htim, TIM_IT_BREAK);
 8001a4c:	687b      	ldr	r3, [r7, #4]
 8001a4e:	681b      	ldr	r3, [r3, #0]
 8001a50:	f06f 0280 	mvn.w	r2, #128	; 0x80
 8001a54:	611a      	str	r2, [r3, #16]
#if (USE_HAL_TIM_REGISTER_CALLBACKS == 1)
      htim->BreakCallback(htim);
#else
      HAL_TIMEx_BreakCallback(htim);
 8001a56:	6878      	ldr	r0, [r7, #4]
 8001a58:	f000 fa67 	bl	8001f2a <HAL_TIMEx_BreakCallback>
#endif /* USE_HAL_TIM_REGISTER_CALLBACKS */
    }
  }
  /* TIM Trigger detection event */
  if (__HAL_TIM_GET_FLAG(htim, TIM_FLAG_TRIGGER) != RESET)
 8001a5c:	687b      	ldr	r3, [r7, #4]
 8001a5e:	681b      	ldr	r3, [r3, #0]
 8001a60:	691b      	ldr	r3, [r3, #16]
 8001a62:	f003 0340 	and.w	r3, r3, #64	; 0x40
 8001a66:	2b40      	cmp	r3, #64	; 0x40
 8001a68:	d10e      	bne.n	8001a88 <HAL_TIM_IRQHandler+0x1dc>
  {
    if (__HAL_TIM_GET_IT_SOURCE(htim, TIM_IT_TRIGGER) != RESET)
 8001a6a:	687b      	ldr	r3, [r7, #4]
 8001a6c:	681b      	ldr	r3, [r3, #0]
 8001a6e:	68db      	ldr	r3, [r3, #12]
 8001a70:	f003 0340 	and.w	r3, r3, #64	; 0x40
 8001a74:	2b40      	cmp	r3, #64	; 0x40
 8001a76:	d107      	bne.n	8001a88 <HAL_TIM_IRQHandler+0x1dc>
    {
      __HAL_TIM_CLEAR_IT(htim, TIM_IT_TRIGGER);
 8001a78:	687b      	ldr	r3, [r7, #4]
 8001a7a:	681b      	ldr	r3, [r3, #0]
 8001a7c:	f06f 0240 	mvn.w	r2, #64	; 0x40
 8001a80:	611a      	str	r2, [r3, #16]
#if (USE_HAL_TIM_REGISTER_CALLBACKS == 1)
      htim->TriggerCallback(htim);
#else
      HAL_TIM_TriggerCallback(htim);
 8001a82:	6878      	ldr	r0, [r7, #4]
 8001a84:	f000 f8f9 	bl	8001c7a <HAL_TIM_TriggerCallback>
#endif /* USE_HAL_TIM_REGISTER_CALLBACKS */
    }
  }
  /* TIM commutation event */
  if (__HAL_TIM_GET_FLAG(htim, TIM_FLAG_COM) != RESET)
 8001a88:	687b      	ldr	r3, [r7, #4]
 8001a8a:	681b      	ldr	r3, [r3, #0]
 8001a8c:	691b      	ldr	r3, [r3, #16]
 8001a8e:	f003 0320 	and.w	r3, r3, #32
 8001a92:	2b20      	cmp	r3, #32
 8001a94:	d10e      	bne.n	8001ab4 <HAL_TIM_IRQHandler+0x208>
  {
    if (__HAL_TIM_GET_IT_SOURCE(htim, TIM_IT_COM) != RESET)
 8001a96:	687b      	ldr	r3, [r7, #4]
 8001a98:	681b      	ldr	r3, [r3, #0]
 8001a9a:	68db      	ldr	r3, [r3, #12]
 8001a9c:	f003 0320 	and.w	r3, r3, #32
 8001aa0:	2b20      	cmp	r3, #32
 8001aa2:	d107      	bne.n	8001ab4 <HAL_TIM_IRQHandler+0x208>
    {
      __HAL_TIM_CLEAR_IT(htim, TIM_FLAG_COM);
 8001aa4:	687b      	ldr	r3, [r7, #4]
 8001aa6:	681b      	ldr	r3, [r3, #0]
 8001aa8:	f06f 0220 	mvn.w	r2, #32
 8001aac:	611a      	str	r2, [r3, #16]
#if (USE_HAL_TIM_REGISTER_CALLBACKS == 1)
      htim->CommutationCallback(htim);
#else
      HAL_TIMEx_CommutCallback(htim);
 8001aae:	6878      	ldr	r0, [r7, #4]
 8001ab0:	f000 fa32 	bl	8001f18 <HAL_TIMEx_CommutCallback>
#endif /* USE_HAL_TIM_REGISTER_CALLBACKS */
    }
  }
}
 8001ab4:	bf00      	nop
 8001ab6:	3708      	adds	r7, #8
 8001ab8:	46bd      	mov	sp, r7
 8001aba:	bd80      	pop	{r7, pc}

08001abc <HAL_TIM_ConfigClockSource>:
  * @param  sClockSourceConfig pointer to a TIM_ClockConfigTypeDef structure that
  *         contains the clock source information for the TIM peripheral.
  * @retval HAL status
  */
HAL_StatusTypeDef HAL_TIM_ConfigClockSource(TIM_HandleTypeDef *htim, TIM_ClockConfigTypeDef *sClockSourceConfig)
{
 8001abc:	b580      	push	{r7, lr}
 8001abe:	b084      	sub	sp, #16
 8001ac0:	af00      	add	r7, sp, #0
 8001ac2:	6078      	str	r0, [r7, #4]
 8001ac4:	6039      	str	r1, [r7, #0]
  uint32_t tmpsmcr;

  /* Process Locked */
  __HAL_LOCK(htim);
 8001ac6:	687b      	ldr	r3, [r7, #4]
 8001ac8:	f893 303c 	ldrb.w	r3, [r3, #60]	; 0x3c
 8001acc:	2b01      	cmp	r3, #1
 8001ace:	d101      	bne.n	8001ad4 <HAL_TIM_ConfigClockSource+0x18>
 8001ad0:	2302      	movs	r3, #2
 8001ad2:	e0b3      	b.n	8001c3c <HAL_TIM_ConfigClockSource+0x180>
 8001ad4:	687b      	ldr	r3, [r7, #4]
 8001ad6:	2201      	movs	r2, #1
 8001ad8:	f883 203c 	strb.w	r2, [r3, #60]	; 0x3c

  htim->State = HAL_TIM_STATE_BUSY;
 8001adc:	687b      	ldr	r3, [r7, #4]
 8001ade:	2202      	movs	r2, #2
 8001ae0:	f883 203d 	strb.w	r2, [r3, #61]	; 0x3d

  /* Check the parameters */
  assert_param(IS_TIM_CLOCKSOURCE(sClockSourceConfig->ClockSource));

  /* Reset the SMS, TS, ECE, ETPS and ETRF bits */
  tmpsmcr = htim->Instance->SMCR;
 8001ae4:	687b      	ldr	r3, [r7, #4]
 8001ae6:	681b      	ldr	r3, [r3, #0]
 8001ae8:	689b      	ldr	r3, [r3, #8]
 8001aea:	60fb      	str	r3, [r7, #12]
  tmpsmcr &= ~(TIM_SMCR_SMS | TIM_SMCR_TS);
 8001aec:	68fb      	ldr	r3, [r7, #12]
 8001aee:	f023 0377 	bic.w	r3, r3, #119	; 0x77
 8001af2:	60fb      	str	r3, [r7, #12]
  tmpsmcr &= ~(TIM_SMCR_ETF | TIM_SMCR_ETPS | TIM_SMCR_ECE | TIM_SMCR_ETP);
 8001af4:	68fb      	ldr	r3, [r7, #12]
 8001af6:	f423 437f 	bic.w	r3, r3, #65280	; 0xff00
 8001afa:	60fb      	str	r3, [r7, #12]
  htim->Instance->SMCR = tmpsmcr;
 8001afc:	687b      	ldr	r3, [r7, #4]
 8001afe:	681b      	ldr	r3, [r3, #0]
 8001b00:	68fa      	ldr	r2, [r7, #12]
 8001b02:	609a      	str	r2, [r3, #8]

  switch (sClockSourceConfig->ClockSource)
 8001b04:	683b      	ldr	r3, [r7, #0]
 8001b06:	681b      	ldr	r3, [r3, #0]
 8001b08:	f5b3 5f00 	cmp.w	r3, #8192	; 0x2000
 8001b0c:	d03e      	beq.n	8001b8c <HAL_TIM_ConfigClockSource+0xd0>
 8001b0e:	f5b3 5f00 	cmp.w	r3, #8192	; 0x2000
 8001b12:	f200 8087 	bhi.w	8001c24 <HAL_TIM_ConfigClockSource+0x168>
 8001b16:	f5b3 5f80 	cmp.w	r3, #4096	; 0x1000
 8001b1a:	f000 8085 	beq.w	8001c28 <HAL_TIM_ConfigClockSource+0x16c>
 8001b1e:	f5b3 5f80 	cmp.w	r3, #4096	; 0x1000
 8001b22:	d87f      	bhi.n	8001c24 <HAL_TIM_ConfigClockSource+0x168>
 8001b24:	2b70      	cmp	r3, #112	; 0x70
 8001b26:	d01a      	beq.n	8001b5e <HAL_TIM_ConfigClockSource+0xa2>
 8001b28:	2b70      	cmp	r3, #112	; 0x70
 8001b2a:	d87b      	bhi.n	8001c24 <HAL_TIM_ConfigClockSource+0x168>
 8001b2c:	2b60      	cmp	r3, #96	; 0x60
 8001b2e:	d050      	beq.n	8001bd2 <HAL_TIM_ConfigClockSource+0x116>
 8001b30:	2b60      	cmp	r3, #96	; 0x60
 8001b32:	d877      	bhi.n	8001c24 <HAL_TIM_ConfigClockSource+0x168>
 8001b34:	2b50      	cmp	r3, #80	; 0x50
 8001b36:	d03c      	beq.n	8001bb2 <HAL_TIM_ConfigClockSource+0xf6>
 8001b38:	2b50      	cmp	r3, #80	; 0x50
 8001b3a:	d873      	bhi.n	8001c24 <HAL_TIM_ConfigClockSource+0x168>
 8001b3c:	2b40      	cmp	r3, #64	; 0x40
 8001b3e:	d058      	beq.n	8001bf2 <HAL_TIM_ConfigClockSource+0x136>
 8001b40:	2b40      	cmp	r3, #64	; 0x40
 8001b42:	d86f      	bhi.n	8001c24 <HAL_TIM_ConfigClockSource+0x168>
 8001b44:	2b30      	cmp	r3, #48	; 0x30
 8001b46:	d064      	beq.n	8001c12 <HAL_TIM_ConfigClockSource+0x156>
 8001b48:	2b30      	cmp	r3, #48	; 0x30
 8001b4a:	d86b      	bhi.n	8001c24 <HAL_TIM_ConfigClockSource+0x168>
 8001b4c:	2b20      	cmp	r3, #32
 8001b4e:	d060      	beq.n	8001c12 <HAL_TIM_ConfigClockSource+0x156>
 8001b50:	2b20      	cmp	r3, #32
 8001b52:	d867      	bhi.n	8001c24 <HAL_TIM_ConfigClockSource+0x168>
 8001b54:	2b00      	cmp	r3, #0
 8001b56:	d05c      	beq.n	8001c12 <HAL_TIM_ConfigClockSource+0x156>
 8001b58:	2b10      	cmp	r3, #16
 8001b5a:	d05a      	beq.n	8001c12 <HAL_TIM_ConfigClockSource+0x156>
        TIM_ITRx_SetConfig(htim->Instance, sClockSourceConfig->ClockSource);
        break;
      }

    default:
      break;
 8001b5c:	e062      	b.n	8001c24 <HAL_TIM_ConfigClockSource+0x168>
      TIM_ETR_SetConfig(htim->Instance,
 8001b5e:	687b      	ldr	r3, [r7, #4]
 8001b60:	6818      	ldr	r0, [r3, #0]
 8001b62:	683b      	ldr	r3, [r7, #0]
 8001b64:	6899      	ldr	r1, [r3, #8]
 8001b66:	683b      	ldr	r3, [r7, #0]
 8001b68:	685a      	ldr	r2, [r3, #4]
 8001b6a:	683b      	ldr	r3, [r7, #0]
 8001b6c:	68db      	ldr	r3, [r3, #12]
 8001b6e:	f000 f95c 	bl	8001e2a <TIM_ETR_SetConfig>
      tmpsmcr = htim->Instance->SMCR;
 8001b72:	687b      	ldr	r3, [r7, #4]
 8001b74:	681b      	ldr	r3, [r3, #0]
 8001b76:	689b      	ldr	r3, [r3, #8]
 8001b78:	60fb      	str	r3, [r7, #12]
      tmpsmcr |= (TIM_SLAVEMODE_EXTERNAL1 | TIM_CLOCKSOURCE_ETRMODE1);
 8001b7a:	68fb      	ldr	r3, [r7, #12]
 8001b7c:	f043 0377 	orr.w	r3, r3, #119	; 0x77
 8001b80:	60fb      	str	r3, [r7, #12]
      htim->Instance->SMCR = tmpsmcr;
 8001b82:	687b      	ldr	r3, [r7, #4]
 8001b84:	681b      	ldr	r3, [r3, #0]
 8001b86:	68fa      	ldr	r2, [r7, #12]
 8001b88:	609a      	str	r2, [r3, #8]
      break;
 8001b8a:	e04e      	b.n	8001c2a <HAL_TIM_ConfigClockSource+0x16e>
      TIM_ETR_SetConfig(htim->Instance,
 8001b8c:	687b      	ldr	r3, [r7, #4]
 8001b8e:	6818      	ldr	r0, [r3, #0]
 8001b90:	683b      	ldr	r3, [r7, #0]
 8001b92:	6899      	ldr	r1, [r3, #8]
 8001b94:	683b      	ldr	r3, [r7, #0]
 8001b96:	685a      	ldr	r2, [r3, #4]
 8001b98:	683b      	ldr	r3, [r7, #0]
 8001b9a:	68db      	ldr	r3, [r3, #12]
 8001b9c:	f000 f945 	bl	8001e2a <TIM_ETR_SetConfig>
      htim->Instance->SMCR |= TIM_SMCR_ECE;
 8001ba0:	687b      	ldr	r3, [r7, #4]
 8001ba2:	681b      	ldr	r3, [r3, #0]
 8001ba4:	689a      	ldr	r2, [r3, #8]
 8001ba6:	687b      	ldr	r3, [r7, #4]
 8001ba8:	681b      	ldr	r3, [r3, #0]
 8001baa:	f442 4280 	orr.w	r2, r2, #16384	; 0x4000
 8001bae:	609a      	str	r2, [r3, #8]
      break;
 8001bb0:	e03b      	b.n	8001c2a <HAL_TIM_ConfigClockSource+0x16e>
      TIM_TI1_ConfigInputStage(htim->Instance,
 8001bb2:	687b      	ldr	r3, [r7, #4]
 8001bb4:	6818      	ldr	r0, [r3, #0]
 8001bb6:	683b      	ldr	r3, [r7, #0]
 8001bb8:	6859      	ldr	r1, [r3, #4]
 8001bba:	683b      	ldr	r3, [r7, #0]
 8001bbc:	68db      	ldr	r3, [r3, #12]
 8001bbe:	461a      	mov	r2, r3
 8001bc0:	f000 f8bc 	bl	8001d3c <TIM_TI1_ConfigInputStage>
      TIM_ITRx_SetConfig(htim->Instance, TIM_CLOCKSOURCE_TI1);
 8001bc4:	687b      	ldr	r3, [r7, #4]
 8001bc6:	681b      	ldr	r3, [r3, #0]
 8001bc8:	2150      	movs	r1, #80	; 0x50
 8001bca:	4618      	mov	r0, r3
 8001bcc:	f000 f913 	bl	8001df6 <TIM_ITRx_SetConfig>
      break;
 8001bd0:	e02b      	b.n	8001c2a <HAL_TIM_ConfigClockSource+0x16e>
      TIM_TI2_ConfigInputStage(htim->Instance,
 8001bd2:	687b      	ldr	r3, [r7, #4]
 8001bd4:	6818      	ldr	r0, [r3, #0]
 8001bd6:	683b      	ldr	r3, [r7, #0]
 8001bd8:	6859      	ldr	r1, [r3, #4]
 8001bda:	683b      	ldr	r3, [r7, #0]
 8001bdc:	68db      	ldr	r3, [r3, #12]
 8001bde:	461a      	mov	r2, r3
 8001be0:	f000 f8da 	bl	8001d98 <TIM_TI2_ConfigInputStage>
      TIM_ITRx_SetConfig(htim->Instance, TIM_CLOCKSOURCE_TI2);
 8001be4:	687b      	ldr	r3, [r7, #4]
 8001be6:	681b      	ldr	r3, [r3, #0]
 8001be8:	2160      	movs	r1, #96	; 0x60
 8001bea:	4618      	mov	r0, r3
 8001bec:	f000 f903 	bl	8001df6 <TIM_ITRx_SetConfig>
      break;
 8001bf0:	e01b      	b.n	8001c2a <HAL_TIM_ConfigClockSource+0x16e>
      TIM_TI1_ConfigInputStage(htim->Instance,
 8001bf2:	687b      	ldr	r3, [r7, #4]
 8001bf4:	6818      	ldr	r0, [r3, #0]
 8001bf6:	683b      	ldr	r3, [r7, #0]
 8001bf8:	6859      	ldr	r1, [r3, #4]
 8001bfa:	683b      	ldr	r3, [r7, #0]
 8001bfc:	68db      	ldr	r3, [r3, #12]
 8001bfe:	461a      	mov	r2, r3
 8001c00:	f000 f89c 	bl	8001d3c <TIM_TI1_ConfigInputStage>
      TIM_ITRx_SetConfig(htim->Instance, TIM_CLOCKSOURCE_TI1ED);
 8001c04:	687b      	ldr	r3, [r7, #4]
 8001c06:	681b      	ldr	r3, [r3, #0]
 8001c08:	2140      	movs	r1, #64	; 0x40
 8001c0a:	4618      	mov	r0, r3
 8001c0c:	f000 f8f3 	bl	8001df6 <TIM_ITRx_SetConfig>
      break;
 8001c10:	e00b      	b.n	8001c2a <HAL_TIM_ConfigClockSource+0x16e>
        TIM_ITRx_SetConfig(htim->Instance, sClockSourceConfig->ClockSource);
 8001c12:	687b      	ldr	r3, [r7, #4]
 8001c14:	681a      	ldr	r2, [r3, #0]
 8001c16:	683b      	ldr	r3, [r7, #0]
 8001c18:	681b      	ldr	r3, [r3, #0]
 8001c1a:	4619      	mov	r1, r3
 8001c1c:	4610      	mov	r0, r2
 8001c1e:	f000 f8ea 	bl	8001df6 <TIM_ITRx_SetConfig>
        break;
 8001c22:	e002      	b.n	8001c2a <HAL_TIM_ConfigClockSource+0x16e>
      break;
 8001c24:	bf00      	nop
 8001c26:	e000      	b.n	8001c2a <HAL_TIM_ConfigClockSource+0x16e>
      break;
 8001c28:	bf00      	nop
  }
  htim->State = HAL_TIM_STATE_READY;
 8001c2a:	687b      	ldr	r3, [r7, #4]
 8001c2c:	2201      	movs	r2, #1
 8001c2e:	f883 203d 	strb.w	r2, [r3, #61]	; 0x3d

  __HAL_UNLOCK(htim);
 8001c32:	687b      	ldr	r3, [r7, #4]
 8001c34:	2200      	movs	r2, #0
 8001c36:	f883 203c 	strb.w	r2, [r3, #60]	; 0x3c

  return HAL_OK;
 8001c3a:	2300      	movs	r3, #0
}
 8001c3c:	4618      	mov	r0, r3
 8001c3e:	3710      	adds	r7, #16
 8001c40:	46bd      	mov	sp, r7
 8001c42:	bd80      	pop	{r7, pc}

08001c44 <HAL_TIM_OC_DelayElapsedCallback>:
  * @brief  Output Compare callback in non-blocking mode
  * @param  htim TIM OC handle
  * @retval None
  */
__weak void HAL_TIM_OC_DelayElapsedCallback(TIM_HandleTypeDef *htim)
{
 8001c44:	b480      	push	{r7}
 8001c46:	b083      	sub	sp, #12
 8001c48:	af00      	add	r7, sp, #0
 8001c4a:	6078      	str	r0, [r7, #4]
  UNUSED(htim);

  /* NOTE : This function should not be modified, when the callback is needed,
            the HAL_TIM_OC_DelayElapsedCallback could be implemented in the user file
   */
}
 8001c4c:	bf00      	nop
 8001c4e:	370c      	adds	r7, #12
 8001c50:	46bd      	mov	sp, r7
 8001c52:	bc80      	pop	{r7}
 8001c54:	4770      	bx	lr

08001c56 <HAL_TIM_IC_CaptureCallback>:
  * @brief  Input Capture callback in non-blocking mode
  * @param  htim TIM IC handle
  * @retval None
  */
__weak void HAL_TIM_IC_CaptureCallback(TIM_HandleTypeDef *htim)
{
 8001c56:	b480      	push	{r7}
 8001c58:	b083      	sub	sp, #12
 8001c5a:	af00      	add	r7, sp, #0
 8001c5c:	6078      	str	r0, [r7, #4]
  UNUSED(htim);

  /* NOTE : This function should not be modified, when the callback is needed,
            the HAL_TIM_IC_CaptureCallback could be implemented in the user file
   */
}
 8001c5e:	bf00      	nop
 8001c60:	370c      	adds	r7, #12
 8001c62:	46bd      	mov	sp, r7
 8001c64:	bc80      	pop	{r7}
 8001c66:	4770      	bx	lr

08001c68 <HAL_TIM_PWM_PulseFinishedCallback>:
  * @brief  PWM Pulse finished callback in non-blocking mode
  * @param  htim TIM handle
  * @retval None
  */
__weak void HAL_TIM_PWM_PulseFinishedCallback(TIM_HandleTypeDef *htim)
{
 8001c68:	b480      	push	{r7}
 8001c6a:	b083      	sub	sp, #12
 8001c6c:	af00      	add	r7, sp, #0
 8001c6e:	6078      	str	r0, [r7, #4]
  UNUSED(htim);

  /* NOTE : This function should not be modified, when the callback is needed,
            the HAL_TIM_PWM_PulseFinishedCallback could be implemented in the user file
   */
}
 8001c70:	bf00      	nop
 8001c72:	370c      	adds	r7, #12
 8001c74:	46bd      	mov	sp, r7
 8001c76:	bc80      	pop	{r7}
 8001c78:	4770      	bx	lr

08001c7a <HAL_TIM_TriggerCallback>:
  * @brief  Hall Trigger detection callback in non-blocking mode
  * @param  htim TIM handle
  * @retval None
  */
__weak void HAL_TIM_TriggerCallback(TIM_HandleTypeDef *htim)
{
 8001c7a:	b480      	push	{r7}
 8001c7c:	b083      	sub	sp, #12
 8001c7e:	af00      	add	r7, sp, #0
 8001c80:	6078      	str	r0, [r7, #4]
  UNUSED(htim);

  /* NOTE : This function should not be modified, when the callback is needed,
            the HAL_TIM_TriggerCallback could be implemented in the user file
   */
}
 8001c82:	bf00      	nop
 8001c84:	370c      	adds	r7, #12
 8001c86:	46bd      	mov	sp, r7
 8001c88:	bc80      	pop	{r7}
 8001c8a:	4770      	bx	lr

08001c8c <TIM_Base_SetConfig>:
  * @param  TIMx TIM peripheral
  * @param  Structure TIM Base configuration structure
  * @retval None
  */
void TIM_Base_SetConfig(TIM_TypeDef *TIMx, TIM_Base_InitTypeDef *Structure)
{
 8001c8c:	b480      	push	{r7}
 8001c8e:	b085      	sub	sp, #20
 8001c90:	af00      	add	r7, sp, #0
 8001c92:	6078      	str	r0, [r7, #4]
 8001c94:	6039      	str	r1, [r7, #0]
  uint32_t tmpcr1;
  tmpcr1 = TIMx->CR1;
 8001c96:	687b      	ldr	r3, [r7, #4]
 8001c98:	681b      	ldr	r3, [r3, #0]
 8001c9a:	60fb      	str	r3, [r7, #12]

  /* Set TIM Time Base Unit parameters ---------------------------------------*/
  if (IS_TIM_COUNTER_MODE_SELECT_INSTANCE(TIMx))
 8001c9c:	687b      	ldr	r3, [r7, #4]
 8001c9e:	4a25      	ldr	r2, [pc, #148]	; (8001d34 <TIM_Base_SetConfig+0xa8>)
 8001ca0:	4293      	cmp	r3, r2
 8001ca2:	d007      	beq.n	8001cb4 <TIM_Base_SetConfig+0x28>
 8001ca4:	687b      	ldr	r3, [r7, #4]
 8001ca6:	f1b3 4f80 	cmp.w	r3, #1073741824	; 0x40000000
 8001caa:	d003      	beq.n	8001cb4 <TIM_Base_SetConfig+0x28>
 8001cac:	687b      	ldr	r3, [r7, #4]
 8001cae:	4a22      	ldr	r2, [pc, #136]	; (8001d38 <TIM_Base_SetConfig+0xac>)
 8001cb0:	4293      	cmp	r3, r2
 8001cb2:	d108      	bne.n	8001cc6 <TIM_Base_SetConfig+0x3a>
  {
    /* Select the Counter Mode */
    tmpcr1 &= ~(TIM_CR1_DIR | TIM_CR1_CMS);
 8001cb4:	68fb      	ldr	r3, [r7, #12]
 8001cb6:	f023 0370 	bic.w	r3, r3, #112	; 0x70
 8001cba:	60fb      	str	r3, [r7, #12]
    tmpcr1 |= Structure->CounterMode;
 8001cbc:	683b      	ldr	r3, [r7, #0]
 8001cbe:	685b      	ldr	r3, [r3, #4]
 8001cc0:	68fa      	ldr	r2, [r7, #12]
 8001cc2:	4313      	orrs	r3, r2
 8001cc4:	60fb      	str	r3, [r7, #12]
  }

  if (IS_TIM_CLOCK_DIVISION_INSTANCE(TIMx))
 8001cc6:	687b      	ldr	r3, [r7, #4]
 8001cc8:	4a1a      	ldr	r2, [pc, #104]	; (8001d34 <TIM_Base_SetConfig+0xa8>)
 8001cca:	4293      	cmp	r3, r2
 8001ccc:	d007      	beq.n	8001cde <TIM_Base_SetConfig+0x52>
 8001cce:	687b      	ldr	r3, [r7, #4]
 8001cd0:	f1b3 4f80 	cmp.w	r3, #1073741824	; 0x40000000
 8001cd4:	d003      	beq.n	8001cde <TIM_Base_SetConfig+0x52>
 8001cd6:	687b      	ldr	r3, [r7, #4]
 8001cd8:	4a17      	ldr	r2, [pc, #92]	; (8001d38 <TIM_Base_SetConfig+0xac>)
 8001cda:	4293      	cmp	r3, r2
 8001cdc:	d108      	bne.n	8001cf0 <TIM_Base_SetConfig+0x64>
  {
    /* Set the clock division */
    tmpcr1 &= ~TIM_CR1_CKD;
 8001cde:	68fb      	ldr	r3, [r7, #12]
 8001ce0:	f423 7340 	bic.w	r3, r3, #768	; 0x300
 8001ce4:	60fb      	str	r3, [r7, #12]
    tmpcr1 |= (uint32_t)Structure->ClockDivision;
 8001ce6:	683b      	ldr	r3, [r7, #0]
 8001ce8:	68db      	ldr	r3, [r3, #12]
 8001cea:	68fa      	ldr	r2, [r7, #12]
 8001cec:	4313      	orrs	r3, r2
 8001cee:	60fb      	str	r3, [r7, #12]
  }

  /* Set the auto-reload preload */
  MODIFY_REG(tmpcr1, TIM_CR1_ARPE, Structure->AutoReloadPreload);
 8001cf0:	68fb      	ldr	r3, [r7, #12]
 8001cf2:	f023 0280 	bic.w	r2, r3, #128	; 0x80
 8001cf6:	683b      	ldr	r3, [r7, #0]
 8001cf8:	695b      	ldr	r3, [r3, #20]
 8001cfa:	4313      	orrs	r3, r2
 8001cfc:	60fb      	str	r3, [r7, #12]

  TIMx->CR1 = tmpcr1;
 8001cfe:	687b      	ldr	r3, [r7, #4]
 8001d00:	68fa      	ldr	r2, [r7, #12]
 8001d02:	601a      	str	r2, [r3, #0]

  /* Set the Autoreload value */
  TIMx->ARR = (uint32_t)Structure->Period ;
 8001d04:	683b      	ldr	r3, [r7, #0]
 8001d06:	689a      	ldr	r2, [r3, #8]
 8001d08:	687b      	ldr	r3, [r7, #4]
 8001d0a:	62da      	str	r2, [r3, #44]	; 0x2c

  /* Set the Prescaler value */
  TIMx->PSC = Structure->Prescaler;
 8001d0c:	683b      	ldr	r3, [r7, #0]
 8001d0e:	681a      	ldr	r2, [r3, #0]
 8001d10:	687b      	ldr	r3, [r7, #4]
 8001d12:	629a      	str	r2, [r3, #40]	; 0x28

  if (IS_TIM_REPETITION_COUNTER_INSTANCE(TIMx))
 8001d14:	687b      	ldr	r3, [r7, #4]
 8001d16:	4a07      	ldr	r2, [pc, #28]	; (8001d34 <TIM_Base_SetConfig+0xa8>)
 8001d18:	4293      	cmp	r3, r2
 8001d1a:	d103      	bne.n	8001d24 <TIM_Base_SetConfig+0x98>
  {
    /* Set the Repetition Counter value */
    TIMx->RCR = Structure->RepetitionCounter;
 8001d1c:	683b      	ldr	r3, [r7, #0]
 8001d1e:	691a      	ldr	r2, [r3, #16]
 8001d20:	687b      	ldr	r3, [r7, #4]
 8001d22:	631a      	str	r2, [r3, #48]	; 0x30
  }

  /* Generate an update event to reload the Prescaler
     and the repetition counter (only for advanced timer) value immediately */
  TIMx->EGR = TIM_EGR_UG;
 8001d24:	687b      	ldr	r3, [r7, #4]
 8001d26:	2201      	movs	r2, #1
 8001d28:	615a      	str	r2, [r3, #20]
}
 8001d2a:	bf00      	nop
 8001d2c:	3714      	adds	r7, #20
 8001d2e:	46bd      	mov	sp, r7
 8001d30:	bc80      	pop	{r7}
 8001d32:	4770      	bx	lr
 8001d34:	40012c00 	.word	0x40012c00
 8001d38:	40000400 	.word	0x40000400

08001d3c <TIM_TI1_ConfigInputStage>:
  * @param  TIM_ICFilter Specifies the Input Capture Filter.
  *          This parameter must be a value between 0x00 and 0x0F.
  * @retval None
  */
static void TIM_TI1_ConfigInputStage(TIM_TypeDef *TIMx, uint32_t TIM_ICPolarity, uint32_t TIM_ICFilter)
{
 8001d3c:	b480      	push	{r7}
 8001d3e:	b087      	sub	sp, #28
 8001d40:	af00      	add	r7, sp, #0
 8001d42:	60f8      	str	r0, [r7, #12]
 8001d44:	60b9      	str	r1, [r7, #8]
 8001d46:	607a      	str	r2, [r7, #4]
  uint32_t tmpccmr1;
  uint32_t tmpccer;

  /* Disable the Channel 1: Reset the CC1E Bit */
  tmpccer = TIMx->CCER;
 8001d48:	68fb      	ldr	r3, [r7, #12]
 8001d4a:	6a1b      	ldr	r3, [r3, #32]
 8001d4c:	617b      	str	r3, [r7, #20]
  TIMx->CCER &= ~TIM_CCER_CC1E;
 8001d4e:	68fb      	ldr	r3, [r7, #12]
 8001d50:	6a1b      	ldr	r3, [r3, #32]
 8001d52:	f023 0201 	bic.w	r2, r3, #1
 8001d56:	68fb      	ldr	r3, [r7, #12]
 8001d58:	621a      	str	r2, [r3, #32]
  tmpccmr1 = TIMx->CCMR1;
 8001d5a:	68fb      	ldr	r3, [r7, #12]
 8001d5c:	699b      	ldr	r3, [r3, #24]
 8001d5e:	613b      	str	r3, [r7, #16]

  /* Set the filter */
  tmpccmr1 &= ~TIM_CCMR1_IC1F;
 8001d60:	693b      	ldr	r3, [r7, #16]
 8001d62:	f023 03f0 	bic.w	r3, r3, #240	; 0xf0
 8001d66:	613b      	str	r3, [r7, #16]
  tmpccmr1 |= (TIM_ICFilter << 4U);
 8001d68:	687b      	ldr	r3, [r7, #4]
 8001d6a:	011b      	lsls	r3, r3, #4
 8001d6c:	693a      	ldr	r2, [r7, #16]
 8001d6e:	4313      	orrs	r3, r2
 8001d70:	613b      	str	r3, [r7, #16]

  /* Select the Polarity and set the CC1E Bit */
  tmpccer &= ~(TIM_CCER_CC1P | TIM_CCER_CC1NP);
 8001d72:	697b      	ldr	r3, [r7, #20]
 8001d74:	f023 030a 	bic.w	r3, r3, #10
 8001d78:	617b      	str	r3, [r7, #20]
  tmpccer |= TIM_ICPolarity;
 8001d7a:	697a      	ldr	r2, [r7, #20]
 8001d7c:	68bb      	ldr	r3, [r7, #8]
 8001d7e:	4313      	orrs	r3, r2
 8001d80:	617b      	str	r3, [r7, #20]

  /* Write to TIMx CCMR1 and CCER registers */
  TIMx->CCMR1 = tmpccmr1;
 8001d82:	68fb      	ldr	r3, [r7, #12]
 8001d84:	693a      	ldr	r2, [r7, #16]
 8001d86:	619a      	str	r2, [r3, #24]
  TIMx->CCER = tmpccer;
 8001d88:	68fb      	ldr	r3, [r7, #12]
 8001d8a:	697a      	ldr	r2, [r7, #20]
 8001d8c:	621a      	str	r2, [r3, #32]
}
 8001d8e:	bf00      	nop
 8001d90:	371c      	adds	r7, #28
 8001d92:	46bd      	mov	sp, r7
 8001d94:	bc80      	pop	{r7}
 8001d96:	4770      	bx	lr

08001d98 <TIM_TI2_ConfigInputStage>:
  * @param  TIM_ICFilter Specifies the Input Capture Filter.
  *          This parameter must be a value between 0x00 and 0x0F.
  * @retval None
  */
static void TIM_TI2_ConfigInputStage(TIM_TypeDef *TIMx, uint32_t TIM_ICPolarity, uint32_t TIM_ICFilter)
{
 8001d98:	b480      	push	{r7}
 8001d9a:	b087      	sub	sp, #28
 8001d9c:	af00      	add	r7, sp, #0
 8001d9e:	60f8      	str	r0, [r7, #12]
 8001da0:	60b9      	str	r1, [r7, #8]
 8001da2:	607a      	str	r2, [r7, #4]
  uint32_t tmpccmr1;
  uint32_t tmpccer;

  /* Disable the Channel 2: Reset the CC2E Bit */
  TIMx->CCER &= ~TIM_CCER_CC2E;
 8001da4:	68fb      	ldr	r3, [r7, #12]
 8001da6:	6a1b      	ldr	r3, [r3, #32]
 8001da8:	f023 0210 	bic.w	r2, r3, #16
 8001dac:	68fb      	ldr	r3, [r7, #12]
 8001dae:	621a      	str	r2, [r3, #32]
  tmpccmr1 = TIMx->CCMR1;
 8001db0:	68fb      	ldr	r3, [r7, #12]
 8001db2:	699b      	ldr	r3, [r3, #24]
 8001db4:	617b      	str	r3, [r7, #20]
  tmpccer = TIMx->CCER;
 8001db6:	68fb      	ldr	r3, [r7, #12]
 8001db8:	6a1b      	ldr	r3, [r3, #32]
 8001dba:	613b      	str	r3, [r7, #16]

  /* Set the filter */
  tmpccmr1 &= ~TIM_CCMR1_IC2F;
 8001dbc:	697b      	ldr	r3, [r7, #20]
 8001dbe:	f423 4370 	bic.w	r3, r3, #61440	; 0xf000
 8001dc2:	617b      	str	r3, [r7, #20]
  tmpccmr1 |= (TIM_ICFilter << 12U);
 8001dc4:	687b      	ldr	r3, [r7, #4]
 8001dc6:	031b      	lsls	r3, r3, #12
 8001dc8:	697a      	ldr	r2, [r7, #20]
 8001dca:	4313      	orrs	r3, r2
 8001dcc:	617b      	str	r3, [r7, #20]

  /* Select the Polarity and set the CC2E Bit */
  tmpccer &= ~(TIM_CCER_CC2P | TIM_CCER_CC2NP);
 8001dce:	693b      	ldr	r3, [r7, #16]
 8001dd0:	f023 03a0 	bic.w	r3, r3, #160	; 0xa0
 8001dd4:	613b      	str	r3, [r7, #16]
  tmpccer |= (TIM_ICPolarity << 4U);
 8001dd6:	68bb      	ldr	r3, [r7, #8]
 8001dd8:	011b      	lsls	r3, r3, #4
 8001dda:	693a      	ldr	r2, [r7, #16]
 8001ddc:	4313      	orrs	r3, r2
 8001dde:	613b      	str	r3, [r7, #16]

  /* Write to TIMx CCMR1 and CCER registers */
  TIMx->CCMR1 = tmpccmr1 ;
 8001de0:	68fb      	ldr	r3, [r7, #12]
 8001de2:	697a      	ldr	r2, [r7, #20]
 8001de4:	619a      	str	r2, [r3, #24]
  TIMx->CCER = tmpccer;
 8001de6:	68fb      	ldr	r3, [r7, #12]
 8001de8:	693a      	ldr	r2, [r7, #16]
 8001dea:	621a      	str	r2, [r3, #32]
}
 8001dec:	bf00      	nop
 8001dee:	371c      	adds	r7, #28
 8001df0:	46bd      	mov	sp, r7
 8001df2:	bc80      	pop	{r7}
 8001df4:	4770      	bx	lr

08001df6 <TIM_ITRx_SetConfig>:
  *            @arg TIM_TS_TI2FP2: Filtered Timer Input 2
  *            @arg TIM_TS_ETRF: External Trigger input
  * @retval None
  */
static void TIM_ITRx_SetConfig(TIM_TypeDef *TIMx, uint32_t InputTriggerSource)
{
 8001df6:	b480      	push	{r7}
 8001df8:	b085      	sub	sp, #20
 8001dfa:	af00      	add	r7, sp, #0
 8001dfc:	6078      	str	r0, [r7, #4]
 8001dfe:	6039      	str	r1, [r7, #0]
  uint32_t tmpsmcr;

  /* Get the TIMx SMCR register value */
  tmpsmcr = TIMx->SMCR;
 8001e00:	687b      	ldr	r3, [r7, #4]
 8001e02:	689b      	ldr	r3, [r3, #8]
 8001e04:	60fb      	str	r3, [r7, #12]
  /* Reset the TS Bits */
  tmpsmcr &= ~TIM_SMCR_TS;
 8001e06:	68fb      	ldr	r3, [r7, #12]
 8001e08:	f023 0370 	bic.w	r3, r3, #112	; 0x70
 8001e0c:	60fb      	str	r3, [r7, #12]
  /* Set the Input Trigger source and the slave mode*/
  tmpsmcr |= (InputTriggerSource | TIM_SLAVEMODE_EXTERNAL1);
 8001e0e:	683a      	ldr	r2, [r7, #0]
 8001e10:	68fb      	ldr	r3, [r7, #12]
 8001e12:	4313      	orrs	r3, r2
 8001e14:	f043 0307 	orr.w	r3, r3, #7
 8001e18:	60fb      	str	r3, [r7, #12]
  /* Write to TIMx SMCR */
  TIMx->SMCR = tmpsmcr;
 8001e1a:	687b      	ldr	r3, [r7, #4]
 8001e1c:	68fa      	ldr	r2, [r7, #12]
 8001e1e:	609a      	str	r2, [r3, #8]
}
 8001e20:	bf00      	nop
 8001e22:	3714      	adds	r7, #20
 8001e24:	46bd      	mov	sp, r7
 8001e26:	bc80      	pop	{r7}
 8001e28:	4770      	bx	lr

08001e2a <TIM_ETR_SetConfig>:
  *          This parameter must be a value between 0x00 and 0x0F
  * @retval None
  */
void TIM_ETR_SetConfig(TIM_TypeDef *TIMx, uint32_t TIM_ExtTRGPrescaler,
                       uint32_t TIM_ExtTRGPolarity, uint32_t ExtTRGFilter)
{
 8001e2a:	b480      	push	{r7}
 8001e2c:	b087      	sub	sp, #28
 8001e2e:	af00      	add	r7, sp, #0
 8001e30:	60f8      	str	r0, [r7, #12]
 8001e32:	60b9      	str	r1, [r7, #8]
 8001e34:	607a      	str	r2, [r7, #4]
 8001e36:	603b      	str	r3, [r7, #0]
  uint32_t tmpsmcr;

  tmpsmcr = TIMx->SMCR;
 8001e38:	68fb      	ldr	r3, [r7, #12]
 8001e3a:	689b      	ldr	r3, [r3, #8]
 8001e3c:	617b      	str	r3, [r7, #20]

  /* Reset the ETR Bits */
  tmpsmcr &= ~(TIM_SMCR_ETF | TIM_SMCR_ETPS | TIM_SMCR_ECE | TIM_SMCR_ETP);
 8001e3e:	697b      	ldr	r3, [r7, #20]
 8001e40:	f423 437f 	bic.w	r3, r3, #65280	; 0xff00
 8001e44:	617b      	str	r3, [r7, #20]

  /* Set the Prescaler, the Filter value and the Polarity */
  tmpsmcr |= (uint32_t)(TIM_ExtTRGPrescaler | (TIM_ExtTRGPolarity | (ExtTRGFilter << 8U)));
 8001e46:	683b      	ldr	r3, [r7, #0]
 8001e48:	021a      	lsls	r2, r3, #8
 8001e4a:	687b      	ldr	r3, [r7, #4]
 8001e4c:	431a      	orrs	r2, r3
 8001e4e:	68bb      	ldr	r3, [r7, #8]
 8001e50:	4313      	orrs	r3, r2
 8001e52:	697a      	ldr	r2, [r7, #20]
 8001e54:	4313      	orrs	r3, r2
 8001e56:	617b      	str	r3, [r7, #20]

  /* Write to TIMx SMCR */
  TIMx->SMCR = tmpsmcr;
 8001e58:	68fb      	ldr	r3, [r7, #12]
 8001e5a:	697a      	ldr	r2, [r7, #20]
 8001e5c:	609a      	str	r2, [r3, #8]
}
 8001e5e:	bf00      	nop
 8001e60:	371c      	adds	r7, #28
 8001e62:	46bd      	mov	sp, r7
 8001e64:	bc80      	pop	{r7}
 8001e66:	4770      	bx	lr

08001e68 <HAL_TIMEx_MasterConfigSynchronization>:
  *         mode.
  * @retval HAL status
  */
HAL_StatusTypeDef HAL_TIMEx_MasterConfigSynchronization(TIM_HandleTypeDef *htim,
                                                        TIM_MasterConfigTypeDef *sMasterConfig)
{
 8001e68:	b480      	push	{r7}
 8001e6a:	b085      	sub	sp, #20
 8001e6c:	af00      	add	r7, sp, #0
 8001e6e:	6078      	str	r0, [r7, #4]
 8001e70:	6039      	str	r1, [r7, #0]
  assert_param(IS_TIM_MASTER_INSTANCE(htim->Instance));
  assert_param(IS_TIM_TRGO_SOURCE(sMasterConfig->MasterOutputTrigger));
  assert_param(IS_TIM_MSM_STATE(sMasterConfig->MasterSlaveMode));

  /* Check input state */
  __HAL_LOCK(htim);
 8001e72:	687b      	ldr	r3, [r7, #4]
 8001e74:	f893 303c 	ldrb.w	r3, [r3, #60]	; 0x3c
 8001e78:	2b01      	cmp	r3, #1
 8001e7a:	d101      	bne.n	8001e80 <HAL_TIMEx_MasterConfigSynchronization+0x18>
 8001e7c:	2302      	movs	r3, #2
 8001e7e:	e041      	b.n	8001f04 <HAL_TIMEx_MasterConfigSynchronization+0x9c>
 8001e80:	687b      	ldr	r3, [r7, #4]
 8001e82:	2201      	movs	r2, #1
 8001e84:	f883 203c 	strb.w	r2, [r3, #60]	; 0x3c

  /* Change the handler state */
  htim->State = HAL_TIM_STATE_BUSY;
 8001e88:	687b      	ldr	r3, [r7, #4]
 8001e8a:	2202      	movs	r2, #2
 8001e8c:	f883 203d 	strb.w	r2, [r3, #61]	; 0x3d

  /* Get the TIMx CR2 register value */
  tmpcr2 = htim->Instance->CR2;
 8001e90:	687b      	ldr	r3, [r7, #4]
 8001e92:	681b      	ldr	r3, [r3, #0]
 8001e94:	685b      	ldr	r3, [r3, #4]
 8001e96:	60fb      	str	r3, [r7, #12]

  /* Get the TIMx SMCR register value */
  tmpsmcr = htim->Instance->SMCR;
 8001e98:	687b      	ldr	r3, [r7, #4]
 8001e9a:	681b      	ldr	r3, [r3, #0]
 8001e9c:	689b      	ldr	r3, [r3, #8]
 8001e9e:	60bb      	str	r3, [r7, #8]

  /* Reset the MMS Bits */
  tmpcr2 &= ~TIM_CR2_MMS;
 8001ea0:	68fb      	ldr	r3, [r7, #12]
 8001ea2:	f023 0370 	bic.w	r3, r3, #112	; 0x70
 8001ea6:	60fb      	str	r3, [r7, #12]
  /* Select the TRGO source */
  tmpcr2 |=  sMasterConfig->MasterOutputTrigger;
 8001ea8:	683b      	ldr	r3, [r7, #0]
 8001eaa:	681b      	ldr	r3, [r3, #0]
 8001eac:	68fa      	ldr	r2, [r7, #12]
 8001eae:	4313      	orrs	r3, r2
 8001eb0:	60fb      	str	r3, [r7, #12]

  /* Update TIMx CR2 */
  htim->Instance->CR2 = tmpcr2;
 8001eb2:	687b      	ldr	r3, [r7, #4]
 8001eb4:	681b      	ldr	r3, [r3, #0]
 8001eb6:	68fa      	ldr	r2, [r7, #12]
 8001eb8:	605a      	str	r2, [r3, #4]

  if (IS_TIM_SLAVE_INSTANCE(htim->Instance))
 8001eba:	687b      	ldr	r3, [r7, #4]
 8001ebc:	681b      	ldr	r3, [r3, #0]
 8001ebe:	4a14      	ldr	r2, [pc, #80]	; (8001f10 <HAL_TIMEx_MasterConfigSynchronization+0xa8>)
 8001ec0:	4293      	cmp	r3, r2
 8001ec2:	d009      	beq.n	8001ed8 <HAL_TIMEx_MasterConfigSynchronization+0x70>
 8001ec4:	687b      	ldr	r3, [r7, #4]
 8001ec6:	681b      	ldr	r3, [r3, #0]
 8001ec8:	f1b3 4f80 	cmp.w	r3, #1073741824	; 0x40000000
 8001ecc:	d004      	beq.n	8001ed8 <HAL_TIMEx_MasterConfigSynchronization+0x70>
 8001ece:	687b      	ldr	r3, [r7, #4]
 8001ed0:	681b      	ldr	r3, [r3, #0]
 8001ed2:	4a10      	ldr	r2, [pc, #64]	; (8001f14 <HAL_TIMEx_MasterConfigSynchronization+0xac>)
 8001ed4:	4293      	cmp	r3, r2
 8001ed6:	d10c      	bne.n	8001ef2 <HAL_TIMEx_MasterConfigSynchronization+0x8a>
  {
    /* Reset the MSM Bit */
    tmpsmcr &= ~TIM_SMCR_MSM;
 8001ed8:	68bb      	ldr	r3, [r7, #8]
 8001eda:	f023 0380 	bic.w	r3, r3, #128	; 0x80
 8001ede:	60bb      	str	r3, [r7, #8]
    /* Set master mode */
    tmpsmcr |= sMasterConfig->MasterSlaveMode;
 8001ee0:	683b      	ldr	r3, [r7, #0]
 8001ee2:	685b      	ldr	r3, [r3, #4]
 8001ee4:	68ba      	ldr	r2, [r7, #8]
 8001ee6:	4313      	orrs	r3, r2
 8001ee8:	60bb      	str	r3, [r7, #8]

    /* Update TIMx SMCR */
    htim->Instance->SMCR = tmpsmcr;
 8001eea:	687b      	ldr	r3, [r7, #4]
 8001eec:	681b      	ldr	r3, [r3, #0]
 8001eee:	68ba      	ldr	r2, [r7, #8]
 8001ef0:	609a      	str	r2, [r3, #8]
  }

  /* Change the htim state */
  htim->State = HAL_TIM_STATE_READY;
 8001ef2:	687b      	ldr	r3, [r7, #4]
 8001ef4:	2201      	movs	r2, #1
 8001ef6:	f883 203d 	strb.w	r2, [r3, #61]	; 0x3d

  __HAL_UNLOCK(htim);
 8001efa:	687b      	ldr	r3, [r7, #4]
 8001efc:	2200      	movs	r2, #0
 8001efe:	f883 203c 	strb.w	r2, [r3, #60]	; 0x3c

  return HAL_OK;
 8001f02:	2300      	movs	r3, #0
}
 8001f04:	4618      	mov	r0, r3
 8001f06:	3714      	adds	r7, #20
 8001f08:	46bd      	mov	sp, r7
 8001f0a:	bc80      	pop	{r7}
 8001f0c:	4770      	bx	lr
 8001f0e:	bf00      	nop
 8001f10:	40012c00 	.word	0x40012c00
 8001f14:	40000400 	.word	0x40000400

08001f18 <HAL_TIMEx_CommutCallback>:
  * @brief  Hall commutation changed callback in non-blocking mode
  * @param  htim TIM handle
  * @retval None
  */
__weak void HAL_TIMEx_CommutCallback(TIM_HandleTypeDef *htim)
{
 8001f18:	b480      	push	{r7}
 8001f1a:	b083      	sub	sp, #12
 8001f1c:	af00      	add	r7, sp, #0
 8001f1e:	6078      	str	r0, [r7, #4]
  UNUSED(htim);

  /* NOTE : This function should not be modified, when the callback is needed,
            the HAL_TIMEx_CommutCallback could be implemented in the user file
   */
}
 8001f20:	bf00      	nop
 8001f22:	370c      	adds	r7, #12
 8001f24:	46bd      	mov	sp, r7
 8001f26:	bc80      	pop	{r7}
 8001f28:	4770      	bx	lr

08001f2a <HAL_TIMEx_BreakCallback>:
  * @brief  Hall Break detection callback in non-blocking mode
  * @param  htim TIM handle
  * @retval None
  */
__weak void HAL_TIMEx_BreakCallback(TIM_HandleTypeDef *htim)
{
 8001f2a:	b480      	push	{r7}
 8001f2c:	b083      	sub	sp, #12
 8001f2e:	af00      	add	r7, sp, #0
 8001f30:	6078      	str	r0, [r7, #4]
  UNUSED(htim);

  /* NOTE : This function should not be modified, when the callback is needed,
            the HAL_TIMEx_BreakCallback could be implemented in the user file
   */
}
 8001f32:	bf00      	nop
 8001f34:	370c      	adds	r7, #12
 8001f36:	46bd      	mov	sp, r7
 8001f38:	bc80      	pop	{r7}
 8001f3a:	4770      	bx	lr

08001f3c <__libc_init_array>:
 8001f3c:	b570      	push	{r4, r5, r6, lr}
 8001f3e:	2600      	movs	r6, #0
 8001f40:	4d0c      	ldr	r5, [pc, #48]	; (8001f74 <__libc_init_array+0x38>)
 8001f42:	4c0d      	ldr	r4, [pc, #52]	; (8001f78 <__libc_init_array+0x3c>)
 8001f44:	1b64      	subs	r4, r4, r5
 8001f46:	10a4      	asrs	r4, r4, #2
 8001f48:	42a6      	cmp	r6, r4
 8001f4a:	d109      	bne.n	8001f60 <__libc_init_array+0x24>
 8001f4c:	f000 f822 	bl	8001f94 <_init>
 8001f50:	2600      	movs	r6, #0
 8001f52:	4d0a      	ldr	r5, [pc, #40]	; (8001f7c <__libc_init_array+0x40>)
 8001f54:	4c0a      	ldr	r4, [pc, #40]	; (8001f80 <__libc_init_array+0x44>)
 8001f56:	1b64      	subs	r4, r4, r5
 8001f58:	10a4      	asrs	r4, r4, #2
 8001f5a:	42a6      	cmp	r6, r4
 8001f5c:	d105      	bne.n	8001f6a <__libc_init_array+0x2e>
 8001f5e:	bd70      	pop	{r4, r5, r6, pc}
 8001f60:	f855 3b04 	ldr.w	r3, [r5], #4
 8001f64:	4798      	blx	r3
 8001f66:	3601      	adds	r6, #1
 8001f68:	e7ee      	b.n	8001f48 <__libc_init_array+0xc>
 8001f6a:	f855 3b04 	ldr.w	r3, [r5], #4
 8001f6e:	4798      	blx	r3
 8001f70:	3601      	adds	r6, #1
 8001f72:	e7f2      	b.n	8001f5a <__libc_init_array+0x1e>
 8001f74:	08001fcc 	.word	0x08001fcc
 8001f78:	08001fcc 	.word	0x08001fcc
 8001f7c:	08001fcc 	.word	0x08001fcc
 8001f80:	08001fd0 	.word	0x08001fd0

08001f84 <memset>:
 8001f84:	4603      	mov	r3, r0
 8001f86:	4402      	add	r2, r0
 8001f88:	4293      	cmp	r3, r2
 8001f8a:	d100      	bne.n	8001f8e <memset+0xa>
 8001f8c:	4770      	bx	lr
 8001f8e:	f803 1b01 	strb.w	r1, [r3], #1
 8001f92:	e7f9      	b.n	8001f88 <memset+0x4>

08001f94 <_init>:
 8001f94:	b5f8      	push	{r3, r4, r5, r6, r7, lr}
 8001f96:	bf00      	nop
 8001f98:	bcf8      	pop	{r3, r4, r5, r6, r7}
 8001f9a:	bc08      	pop	{r3}
 8001f9c:	469e      	mov	lr, r3
 8001f9e:	4770      	bx	lr

08001fa0 <_fini>:
 8001fa0:	b5f8      	push	{r3, r4, r5, r6, r7, lr}
 8001fa2:	bf00      	nop
 8001fa4:	bcf8      	pop	{r3, r4, r5, r6, r7}
 8001fa6:	bc08      	pop	{r3}
 8001fa8:	469e      	mov	lr, r3
 8001faa:	4770      	bx	lr
